(dp1
S'files'
p2
(dp3
S'_Users_ericdouglas_Documents_VirtualEnvs_djangotest_lib_python2_7_site-packages_django_utils_text'
p4
(dp5
S'index'
p6
(dp7
S'html_filename'
p8
S'_Users_ericdouglas_Documents_VirtualEnvs_djangotest_lib_python2_7_site-packages_django_utils_text.html'
p9
sS'name'
p10
S'/Users/ericdouglas/Documents/VirtualEnvs/djangotest/lib/python2.7/site-packages/django/utils/text'
p11
sS'nums'
p12
ccopy_reg
_reconstructor
p13
(ccoverage.results
Numbers
p14
c__builtin__
object
p15
NtRp16
(dp17
S'n_files'
p18
I1
sS'n_branches'
p19
I0
sS'n_statements'
p20
I227
sS'n_excluded'
p21
I0
sS'n_partial_branches'
p22
I0
sS'n_missing'
p23
I154
sS'n_missing_branches'
p24
I0
sbssS'hash'
p25
S'/E\xde\x89\xcb\x1f\xb5Z\x9eot\x1a\xacn\xb6\xe3'
p26
ssS'_Users_ericdouglas_Documents_VirtualEnvs_djangotest_lib_python2_7_site-packages_django_contrib_sessions_backends_base'
p27
(dp28
g6
(dp29
g8
S'_Users_ericdouglas_Documents_VirtualEnvs_djangotest_lib_python2_7_site-packages_django_contrib_sessions_backends_base.html'
p30
sg10
S'/Users/ericdouglas/Documents/VirtualEnvs/djangotest/lib/python2.7/site-packages/django/contrib/sessions/backends/base'
p31
sg12
g13
(g14
g15
NtRp32
(dp33
g18
I1
sg19
I0
sg20
I181
sg21
I0
sg22
I0
sg23
I107
sg24
I0
sbssg25
S'\x9d\xe3)\x86\x9a\x0e\xcdd\xae\x94\xb1v\xd3K\xd8\xa2'
p34
ssS'_Users_ericdouglas_Documents_VirtualEnvs_djangotest_lib_python2_7_site-packages_django_http___init__'
p35
(dp36
g6
(dp37
S'html_filename'
p38
S'_Users_ericdouglas_Documents_VirtualEnvs_djangotest_lib_python2_7_site-packages_django_http___init__.html'
p39
sS'name'
p40
S'/Users/ericdouglas/Documents/VirtualEnvs/djangotest/lib/python2.7/site-packages/django/http/__init__'
p41
sS'nums'
p42
g13
(g14
g15
NtRp43
(dp44
g18
I1
sg19
I0
sg20
I4
sg21
I0
sg22
I0
sg23
I0
sg24
I0
sbssg25
S'\xbc\xce\xb4\x0c\xc4\xeaf\xc2\xff[\x82\x08~49\xd8'
p45
ssS'_Users_ericdouglas_Documents_VirtualEnvs_djangotest_lib_python2_7_site-packages_django_contrib_messages_api'
p46
(dp47
g6
(dp48
g38
S'_Users_ericdouglas_Documents_VirtualEnvs_djangotest_lib_python2_7_site-packages_django_contrib_messages_api.html'
p49
sg40
S'/Users/ericdouglas/Documents/VirtualEnvs/djangotest/lib/python2.7/site-packages/django/contrib/messages/api'
p50
sg42
g13
(g14
g15
NtRp51
(dp52
g18
I1
sg19
I0
sg20
I34
sg21
I0
sg22
I0
sg23
I20
sg24
I0
sbssg25
S'9\x99\x8a)\xc55\n\x9c\xe2\x9c[C\x0b\xf9\xfd\xf9'
p53
ssS'_Users_ericdouglas_Documents_VirtualEnvs_djangotest_lib_python2_7_site-packages_django_db_models_sql_query'
p54
(dp55
g6
(dp56
g8
S'_Users_ericdouglas_Documents_VirtualEnvs_djangotest_lib_python2_7_site-packages_django_db_models_sql_query.html'
p57
sg10
S'/Users/ericdouglas/Documents/VirtualEnvs/djangotest/lib/python2.7/site-packages/django/db/models/sql/query'
p58
sg12
g13
(g14
g15
NtRp59
(dp60
g18
I1
sg19
I0
sg20
I940
sg21
I0
sg22
I0
sg23
I497
sg24
I0
sbssg25
S'\x8b\xd8AI+5t\xfeH\x8f\xb5n\xe5\x9d\xd0\xc1'
p61
ssS'_Users_ericdouglas_Documents_VirtualEnvs_djangotest_lib_python2_7_site-packages_django_utils_itercompat'
p62
(dp63
g6
(dp64
g38
S'_Users_ericdouglas_Documents_VirtualEnvs_djangotest_lib_python2_7_site-packages_django_utils_itercompat.html'
p65
sg40
S'/Users/ericdouglas/Documents/VirtualEnvs/djangotest/lib/python2.7/site-packages/django/utils/itercompat'
p66
sg42
g13
(g14
g15
NtRp67
(dp68
g18
I1
sg19
I0
sg20
I17
sg21
I0
sg22
I0
sg23
I8
sg24
I0
sbssg25
S':k\x8b\x86;\xda2T\x9d \xc2\xcdm\x8aDv'
p69
ssS'_Users_ericdouglas_Documents_VirtualEnvs_djangotest_lib_python2_7_site-packages_django_contrib_auth_management___init__'
p70
(dp71
g6
(dp72
g38
S'_Users_ericdouglas_Documents_VirtualEnvs_djangotest_lib_python2_7_site-packages_django_contrib_auth_management___init__.html'
p73
sg40
S'/Users/ericdouglas/Documents/VirtualEnvs/djangotest/lib/python2.7/site-packages/django/contrib/auth/management/__init__'
p74
sg42
g13
(g14
g15
NtRp75
(dp76
g18
I1
sg19
I0
sg20
I101
sg21
I0
sg22
I0
sg23
I49
sg24
I0
sbssg25
S'\xac[[\xa7\x9f\x84\xa9\xd1\x11eL\x05+\xa9Gq'
p77
ssS'_Users_ericdouglas_Documents_VirtualEnvs_djangotest_lib_python2_7_site-packages_django_db_models_expressions'
p78
(dp79
g6
(dp80
g38
S'_Users_ericdouglas_Documents_VirtualEnvs_djangotest_lib_python2_7_site-packages_django_db_models_expressions.html'
p81
sg40
S'/Users/ericdouglas/Documents/VirtualEnvs/djangotest/lib/python2.7/site-packages/django/db/models/expressions'
p82
sg42
g13
(g14
g15
NtRp83
(dp84
g18
I1
sg19
I0
sg20
I94
sg21
I0
sg22
I0
sg23
I50
sg24
I0
sbssg25
S'\x9fV-\x87T\xd5S\xe7)\xc5@\x05 \xe4\x85$'
p85
ssS'_Users_ericdouglas_Documents_VirtualEnvs_djangotest_lib_python2_7_site-packages_django_views_generic_dates'
p86
(dp87
S'index'
p88
(dp89
g8
S'_Users_ericdouglas_Documents_VirtualEnvs_djangotest_lib_python2_7_site-packages_django_views_generic_dates.html'
p90
sg10
S'/Users/ericdouglas/Documents/VirtualEnvs/djangotest/lib/python2.7/site-packages/django/views/generic/dates'
p91
sg12
g13
(g14
g15
NtRp92
(dp93
g18
I1
sg19
I0
sg20
I320
sg21
I0
sg22
I0
sg23
I217
sg24
I0
sbssS'hash'
p94
S'\x8fz\x96\x8a\x17~\xaa\xc4vb\x14\x13pDk\xce'
p95
ssS'_Users_ericdouglas_Documents_VirtualEnvs_djangotest_lib_python2_7_site-packages_django_core_wsgi'
p96
(dp97
g6
(dp98
g38
S'_Users_ericdouglas_Documents_VirtualEnvs_djangotest_lib_python2_7_site-packages_django_core_wsgi.html'
p99
sg40
S'/Users/ericdouglas/Documents/VirtualEnvs/djangotest/lib/python2.7/site-packages/django/core/wsgi'
p100
sg42
g13
(g14
g15
NtRp101
(dp102
g18
I1
sg19
I0
sg20
I3
sg21
I0
sg22
I0
sg23
I1
sg24
I0
sbssg25
S'\x05@\x04,\x8d\xbb\xc9\x97\xb6\xcc;\x06\t\xbb\xb7\xfb'
p103
ssS'_Users_ericdouglas_Documents_VirtualEnvs_djangotest_lib_python2_7_site-packages_tastypie___init__'
p104
(dp105
g88
(dp106
g8
S'_Users_ericdouglas_Documents_VirtualEnvs_djangotest_lib_python2_7_site-packages_tastypie___init__.html'
p107
sg10
S'/Users/ericdouglas/Documents/VirtualEnvs/djangotest/lib/python2.7/site-packages/tastypie/__init__'
p108
sg12
g13
(g14
g15
NtRp109
(dp110
g18
I1
sg19
I0
sg20
I3
sg21
I0
sg22
I0
sg23
I0
sg24
I0
sbssg94
S'\x1cH\xac\xc8)/\xfd\xde\x99\xf2\x95\xd8G\x0ep\x96'
p111
ssS'_Users_ericdouglas_Documents_VirtualEnvs_djangotest_lib_python2_7_site-packages_django_core_files___init__'
p112
(dp113
g6
(dp114
g38
S'_Users_ericdouglas_Documents_VirtualEnvs_djangotest_lib_python2_7_site-packages_django_core_files___init__.html'
p115
sg40
S'/Users/ericdouglas/Documents/VirtualEnvs/djangotest/lib/python2.7/site-packages/django/core/files/__init__'
p116
sg42
g13
(g14
g15
NtRp117
(dp118
g18
I1
sg19
I0
sg20
I1
sg21
I0
sg22
I0
sg23
I0
sg24
I0
sbssg25
S'\x93\xf8\xbd[\xbcl\x80\x88}\xdb\xd6\xec\xb5{\x15\xb3'
p119
ssS'_Users_ericdouglas_Documents_VirtualEnvs_djangotest_lib_python2_7_site-packages_django_db_backends_sqlite3_client'
p120
(dp121
g6
(dp122
g38
S'_Users_ericdouglas_Documents_VirtualEnvs_djangotest_lib_python2_7_site-packages_django_db_backends_sqlite3_client.html'
p123
sg40
S'/Users/ericdouglas/Documents/VirtualEnvs/djangotest/lib/python2.7/site-packages/django/db/backends/sqlite3/client'
p124
sg42
g13
(g14
g15
NtRp125
(dp126
g18
I1
sg19
I0
sg20
I10
sg21
I0
sg22
I0
sg23
I4
sg24
I0
sbssg25
S'\xecNW\x0c\xbeK#\xf0U\xd9l\xa9e\x8f\xb5\xff'
p127
ssS'_Users_ericdouglas_Documents_VirtualEnvs_djangotest_lib_python2_7_site-packages_django_core_files_temp'
p128
(dp129
g6
(dp130
g38
S'_Users_ericdouglas_Documents_VirtualEnvs_djangotest_lib_python2_7_site-packages_django_core_files_temp.html'
p131
sg40
S'/Users/ericdouglas/Documents/VirtualEnvs/djangotest/lib/python2.7/site-packages/django/core/files/temp'
p132
sg42
g13
(g14
g15
NtRp133
(dp134
g18
I1
sg19
I0
sg20
I30
sg21
I0
sg22
I0
sg23
I23
sg24
I0
sbssg25
S'\xacs\xd0D\xffdr\x02\xfc}\x11\xc6\xb0s\xc7\xd8'
p135
ssS'_Users_ericdouglas_Documents_VirtualEnvs_djangotest_lib_python2_7_site-packages_django_core_handlers_base'
p136
(dp137
g6
(dp138
g8
S'_Users_ericdouglas_Documents_VirtualEnvs_djangotest_lib_python2_7_site-packages_django_core_handlers_base.html'
p139
sg10
S'/Users/ericdouglas/Documents/VirtualEnvs/djangotest/lib/python2.7/site-packages/django/core/handlers/base'
p140
sg12
g13
(g14
g15
NtRp141
(dp142
g18
I1
sg19
I0
sg20
I159
sg21
I0
sg22
I0
sg23
I72
sg24
I0
sbssg25
S'\\\x9e\x06!\t%\xaaF\xb1 \x07\x16\x8c\x86\xf9\xaf'
p143
ssS'_Users_ericdouglas_Documents_VirtualEnvs_djangotest_lib_python2_7_site-packages_django_utils_unittest___init__'
p144
(dp145
g6
(dp146
g38
S'_Users_ericdouglas_Documents_VirtualEnvs_djangotest_lib_python2_7_site-packages_django_utils_unittest___init__.html'
p147
sg40
S'/Users/ericdouglas/Documents/VirtualEnvs/djangotest/lib/python2.7/site-packages/django/utils/unittest/__init__'
p148
sg42
g13
(g14
g15
NtRp149
(dp150
g18
I1
sg19
I0
sg20
I23
sg21
I0
sg22
I0
sg23
I17
sg24
I0
sbssg25
S'\xa8N\x8f\x06\xf1O\x1f\x89\xbe\x96\x13\xdd\xdf;\x89s'
p151
ssS'_Users_ericdouglas_Documents_VirtualEnvs_djangotest_lib_python2_7_site-packages_django_utils_xmlutils'
p152
(dp153
g6
(dp154
g38
S'_Users_ericdouglas_Documents_VirtualEnvs_djangotest_lib_python2_7_site-packages_django_utils_xmlutils.html'
p155
sg40
S'/Users/ericdouglas/Documents/VirtualEnvs/djangotest/lib/python2.7/site-packages/django/utils/xmlutils'
p156
sg42
g13
(g14
g15
NtRp157
(dp158
g18
I1
sg19
I0
sg20
I8
sg21
I0
sg22
I0
sg23
I5
sg24
I0
sbssg25
S'2(\xca\xb7\xc4\x99\xdeW\x96k\xef\xd7\xa3\xda\x8b3'
p159
ssS'_Users_ericdouglas_Documents_VirtualEnvs_djangotest_lib_python2_7_site-packages_django_db_backends_creation'
p160
(dp161
g6
(dp162
g38
S'_Users_ericdouglas_Documents_VirtualEnvs_djangotest_lib_python2_7_site-packages_django_db_backends_creation.html'
p163
sg40
S'/Users/ericdouglas/Documents/VirtualEnvs/djangotest/lib/python2.7/site-packages/django/db/backends/creation'
p164
sg42
g13
(g14
g15
NtRp165
(dp166
g18
I1
sg19
I0
sg20
I254
sg21
I0
sg22
I0
sg23
I117
sg24
I0
sbssg25
S'\x12\x06\xb9\xc4h\xb8vu\x9d 2\xce]q\x10e'
p167
ssS'djangotest1_urls'
p168
(dp169
g88
(dp170
g8
S'djangotest1_urls.html'
p171
sg10
S'djangotest1/urls'
p172
sg12
g13
(g14
g15
NtRp173
(dp174
g18
I1
sg19
I0
sg20
I5
sg21
I0
sg22
I0
sg23
I0
sg24
I0
sbssg94
S'\x1c\xce\xf8G\xccd\xcc\x17\x98\x0f\x83\xfa\xb8&\xf8\xb3'
p175
ssS'_Users_ericdouglas_Documents_VirtualEnvs_djangotest_lib_python2_7_site-packages_django_contrib_sites___init__'
p176
(dp177
g6
(dp178
g38
S'_Users_ericdouglas_Documents_VirtualEnvs_djangotest_lib_python2_7_site-packages_django_contrib_sites___init__.html'
p179
sg40
S'/Users/ericdouglas/Documents/VirtualEnvs/djangotest/lib/python2.7/site-packages/django/contrib/sites/__init__'
p180
sg42
g13
(g14
g15
NtRp181
(dp182
g18
I1
sg19
I0
sg20
I0
sg21
I0
sg22
I0
sg23
I0
sg24
I0
sbssg25
S'\xca\xf5\x9f\x7f\x88\xdfa\x831|T\x1d\xbc}\xa5v'
p183
ssS'_Users_ericdouglas_Documents_VirtualEnvs_djangotest_lib_python2_7_site-packages_django_core_management_commands_test'
p184
(dp185
g6
(dp186
g38
S'_Users_ericdouglas_Documents_VirtualEnvs_djangotest_lib_python2_7_site-packages_django_core_management_commands_test.html'
p187
sg40
S'/Users/ericdouglas/Documents/VirtualEnvs/djangotest/lib/python2.7/site-packages/django/core/management/commands/test'
p188
sg42
g13
(g14
g15
NtRp189
(dp190
g18
I1
sg19
I0
sg20
I46
sg21
I0
sg22
I0
sg23
I5
sg24
I0
sbssg25
S'\xf2\n\xec\xc8\xb0M>\xa5\xf6\xb4MQ\xb2\xf0\x80W'
p191
ssS'_Users_ericdouglas_Documents_VirtualEnvs_djangotest_lib_python2_7_site-packages_django_utils_tzinfo'
p192
(dp193
g6
(dp194
g38
S'_Users_ericdouglas_Documents_VirtualEnvs_djangotest_lib_python2_7_site-packages_django_utils_tzinfo.html'
p195
sg40
S'/Users/ericdouglas/Documents/VirtualEnvs/djangotest/lib/python2.7/site-packages/django/utils/tzinfo'
p196
sg42
g13
(g14
g15
NtRp197
(dp198
g18
I1
sg19
I0
sg20
I54
sg21
I0
sg22
I0
sg23
I35
sg24
I0
sbssg25
S'\xd7\xc3\xe6\xb8\xeaF\xf3X\xd8Y\x1a\x17\xcc\xa6\x9d\xcc'
p199
ssS'_Users_ericdouglas_Documents_VirtualEnvs_djangotest_lib_python2_7_site-packages_django_template_loader_tags'
p200
(dp201
g6
(dp202
g8
S'_Users_ericdouglas_Documents_VirtualEnvs_djangotest_lib_python2_7_site-packages_django_template_loader_tags.html'
p203
sg10
S'/Users/ericdouglas/Documents/VirtualEnvs/djangotest/lib/python2.7/site-packages/django/template/loader_tags'
p204
sg12
g13
(g14
g15
NtRp205
(dp206
g18
I1
sg19
I0
sg20
I177
sg21
I0
sg22
I0
sg23
I79
sg24
I0
sbssg25
S'\x93\xe6)\xc2\x00\xe4s\xa3\x93C)\x11FF\x10I'
p207
ssS'_Users_ericdouglas_Documents_VirtualEnvs_djangotest_lib_python2_7_site-packages_django_core_cache_backends_base'
p208
(dp209
g6
(dp210
g8
S'_Users_ericdouglas_Documents_VirtualEnvs_djangotest_lib_python2_7_site-packages_django_core_cache_backends_base.html'
p211
sg10
S'/Users/ericdouglas/Documents/VirtualEnvs/djangotest/lib/python2.7/site-packages/django/core/cache/backends/base'
p212
sg12
g13
(g14
g15
NtRp213
(dp214
g18
I1
sg19
I0
sg20
I100
sg21
I0
sg22
I0
sg23
I52
sg24
I0
sbssg25
S'\x9bR\xfeeR\xd1\xe8a\xc5\xd9o\x11\xcc\xb7j$'
p215
ssS'_Users_ericdouglas_Documents_VirtualEnvs_djangotest_lib_python2_7_site-packages_django_contrib_sites_models'
p216
(dp217
g6
(dp218
g38
S'_Users_ericdouglas_Documents_VirtualEnvs_djangotest_lib_python2_7_site-packages_django_contrib_sites_models.html'
p219
sg40
S'/Users/ericdouglas/Documents/VirtualEnvs/djangotest/lib/python2.7/site-packages/django/contrib/sites/models'
p220
sg42
g13
(g14
g15
NtRp221
(dp222
g18
I1
sg19
I0
sg20
I65
sg21
I0
sg22
I0
sg23
I32
sg24
I0
sbssg25
S'\x94s\xa6-\xd7\x985al\xd5\x9dh\xb7l\xcb-'
p223
ssS'_Users_ericdouglas_Documents_VirtualEnvs_djangotest_lib_python2_7_site-packages_django_conf_locale_en_formats'
p224
(dp225
g6
(dp226
g38
S'_Users_ericdouglas_Documents_VirtualEnvs_djangotest_lib_python2_7_site-packages_django_conf_locale_en_formats.html'
p227
sg40
S'/Users/ericdouglas/Documents/VirtualEnvs/djangotest/lib/python2.7/site-packages/django/conf/locale/en/formats'
p228
sg42
g13
(g14
g15
NtRp229
(dp230
g18
I1
sg19
I0
sg20
I14
sg21
I0
sg22
I0
sg23
I0
sg24
I0
sbssg25
S'\x177\xa3\xb10\xbb?\x8e\xfd\x1bj\xf8\xf8\xe3D\xe0'
p231
ssS'_Users_ericdouglas_Documents_VirtualEnvs_djangotest_lib_python2_7_site-packages_dateutil_tz'
p232
(dp233
g88
(dp234
g8
S'_Users_ericdouglas_Documents_VirtualEnvs_djangotest_lib_python2_7_site-packages_dateutil_tz.html'
p235
sg10
S'/Users/ericdouglas/Documents/VirtualEnvs/djangotest/lib/python2.7/site-packages/dateutil/tz'
p236
sg12
g13
(g14
g15
NtRp237
(dp238
g18
I1
sg19
I0
sg20
I581
sg21
I0
sg22
I0
sg23
I479
sg24
I0
sbssg94
S'A\xaa\x81t\xd4\x1a\x80\xcf\xb5\xe3\x9c\xc5\xdf\t\xe4\x8a'
p239
ssS'_Users_ericdouglas_Documents_VirtualEnvs_djangotest_lib_python2_7_site-packages_django_template_base'
p240
(dp241
g6
(dp242
g8
S'_Users_ericdouglas_Documents_VirtualEnvs_djangotest_lib_python2_7_site-packages_django_template_base.html'
p243
sg10
S'/Users/ericdouglas/Documents/VirtualEnvs/djangotest/lib/python2.7/site-packages/django/template/base'
p244
sg12
g13
(g14
g15
NtRp245
(dp246
g18
I1
sg19
I0
sg20
I787
sg21
I0
sg22
I0
sg23
I343
sg24
I0
sbssg25
S'*\x15\xb7\xf0\x14\x80\xd9\xc3*\x9a\x90@\xa3\xd8\xee\x17'
p247
ssS'_Users_ericdouglas_Documents_VirtualEnvs_djangotest_lib_python2_7_site-packages_django_db_backends_sqlite3_creation'
p248
(dp249
g6
(dp250
g38
S'_Users_ericdouglas_Documents_VirtualEnvs_djangotest_lib_python2_7_site-packages_django_db_backends_sqlite3_creation.html'
p251
sg40
S'/Users/ericdouglas/Documents/VirtualEnvs/djangotest/lib/python2.7/site-packages/django/db/backends/sqlite3/creation'
p252
sg42
g13
(g14
g15
NtRp253
(dp254
g18
I1
sg19
I0
sg20
I42
sg21
I0
sg22
I0
sg23
I16
sg24
I0
sbssg25
S'(\x8c\xc8\xf8\xf7\x16}uR\xc0-\xe5\x9fh\xdf\x19'
p255
ssS'article_admin'
p256
(dp257
g88
(dp258
g8
S'article_admin.html'
p259
sg10
S'article/admin'
p260
sg12
g13
(g14
g15
NtRp261
(dp262
g18
I1
sg19
I0
sg20
I3
sg21
I0
sg22
I0
sg23
I0
sg24
I0
sbssg94
S'\xb9b[\xcc\xbd]M\xef\xdcm\xab\x13\x07\xf5\xc1\xff'
p263
ssS'_Users_ericdouglas_Documents_VirtualEnvs_djangotest_lib_python2_7_site-packages_django_core_files_locks'
p264
(dp265
g6
(dp266
g38
S'_Users_ericdouglas_Documents_VirtualEnvs_djangotest_lib_python2_7_site-packages_django_core_files_locks.html'
p267
sg40
S'/Users/ericdouglas/Documents/VirtualEnvs/djangotest/lib/python2.7/site-packages/django/core/files/locks'
p268
sg42
g13
(g14
g15
NtRp269
(dp270
g18
I1
sg19
I0
sg20
I40
sg21
I0
sg22
I0
sg23
I23
sg24
I0
sbssg25
S'\xe4\xfe\xbaH\xd9\xb2i_\\\xd6\xd8\xfd\r\x16\xf8\x1a'
p271
ssS'_Users_ericdouglas_Documents_VirtualEnvs_djangotest_lib_python2_7_site-packages_django_core_signing'
p272
(dp273
g6
(dp274
g38
S'_Users_ericdouglas_Documents_VirtualEnvs_djangotest_lib_python2_7_site-packages_django_core_signing.html'
p275
sg40
S'/Users/ericdouglas/Documents/VirtualEnvs/djangotest/lib/python2.7/site-packages/django/core/signing'
p276
sg42
g13
(g14
g15
NtRp277
(dp278
g18
I1
sg19
I0
sg20
I86
sg21
I0
sg22
I0
sg23
I54
sg24
I0
sbssg25
S"T\xea\xe3\x07i\xf5\x125g\x00\x8d\n'\xb5\xcf@"
p279
ssS'_Users_ericdouglas_Documents_VirtualEnvs_djangotest_lib_python2_7_site-packages_tastypie_utils_dict'
p280
(dp281
g88
(dp282
g8
S'_Users_ericdouglas_Documents_VirtualEnvs_djangotest_lib_python2_7_site-packages_tastypie_utils_dict.html'
p283
sg10
S'/Users/ericdouglas/Documents/VirtualEnvs/djangotest/lib/python2.7/site-packages/tastypie/utils/dict'
p284
sg12
g13
(g14
g15
NtRp285
(dp286
g18
I1
sg19
I0
sg20
I9
sg21
I0
sg22
I0
sg23
I6
sg24
I0
sbssg94
S'!\xd7x\xf0\x9bxJ\x9b\x0ea\xbe\x19\xbc\xa6P#'
p287
ssS'_Users_ericdouglas_Documents_VirtualEnvs_djangotest_lib_python2_7_site-packages_django_test_html'
p288
(dp289
g6
(dp290
g38
S'_Users_ericdouglas_Documents_VirtualEnvs_djangotest_lib_python2_7_site-packages_django_test_html.html'
p291
sg40
S'/Users/ericdouglas/Documents/VirtualEnvs/djangotest/lib/python2.7/site-packages/django/test/html'
p292
sg42
g13
(g14
g15
NtRp293
(dp294
g18
I1
sg19
I0
sg20
I167
sg21
I0
sg22
I0
sg23
I128
sg24
I0
sbssg25
S'\x06\xa8a\xd2-a\x8b\xeb\xff\xae\x87>\xd0\xdf\xd4\xa7'
p295
ssS'_Users_ericdouglas_Documents_VirtualEnvs_djangotest_lib_python2_7_site-packages_django_contrib_staticfiles___init__'
p296
(dp297
g6
(dp298
g38
S'_Users_ericdouglas_Documents_VirtualEnvs_djangotest_lib_python2_7_site-packages_django_contrib_staticfiles___init__.html'
p299
sg40
S'/Users/ericdouglas/Documents/VirtualEnvs/djangotest/lib/python2.7/site-packages/django/contrib/staticfiles/__init__'
p300
sg42
g13
(g14
g15
NtRp301
(dp302
g18
I1
sg19
I0
sg20
I0
sg21
I0
sg22
I0
sg23
I0
sg24
I0
sbssg25
S'\xca\xf5\x9f\x7f\x88\xdfa\x831|T\x1d\xbc}\xa5v'
p303
ssS'_Users_ericdouglas_Documents_VirtualEnvs_djangotest_lib_python2_7_site-packages_django_contrib_admin_templatetags_admin_urls'
p304
(dp305
g6
(dp306
g38
S'_Users_ericdouglas_Documents_VirtualEnvs_djangotest_lib_python2_7_site-packages_django_contrib_admin_templatetags_admin_urls.html'
p307
sg40
S'/Users/ericdouglas/Documents/VirtualEnvs/djangotest/lib/python2.7/site-packages/django/contrib/admin/templatetags/admin_urls'
p308
sg42
g13
(g14
g15
NtRp309
(dp310
g18
I1
sg19
I0
sg20
I35
sg21
I0
sg22
I0
sg23
I25
sg24
I0
sbssg25
S";\x83'K.0A\xa4\xe4\x02\xd4-\x03\xe7l\x0f"
p311
ssS'_Users_ericdouglas_Documents_VirtualEnvs_djangotest_lib_python2_7_site-packages_django_core_servers___init__'
p312
(dp313
g6
(dp314
g38
S'_Users_ericdouglas_Documents_VirtualEnvs_djangotest_lib_python2_7_site-packages_django_core_servers___init__.html'
p315
sg40
S'/Users/ericdouglas/Documents/VirtualEnvs/djangotest/lib/python2.7/site-packages/django/core/servers/__init__'
p316
sg42
g13
(g14
g15
NtRp317
(dp318
g18
I1
sg19
I0
sg20
I0
sg21
I0
sg22
I0
sg23
I0
sg24
I0
sbssg25
S'\xca\xf5\x9f\x7f\x88\xdfa\x831|T\x1d\xbc}\xa5v'
p319
ssS'_Users_ericdouglas_Documents_VirtualEnvs_djangotest_lib_python2_7_site-packages_tastypie_resources'
p320
(dp321
g88
(dp322
g8
S'_Users_ericdouglas_Documents_VirtualEnvs_djangotest_lib_python2_7_site-packages_tastypie_resources.html'
p323
sg10
S'/Users/ericdouglas/Documents/VirtualEnvs/djangotest/lib/python2.7/site-packages/tastypie/resources'
p324
sg12
g13
(g14
g15
NtRp325
(dp326
g18
I1
sg19
I0
sg20
I1090
sg21
I0
sg22
I0
sg23
I795
sg24
I0
sbssg94
S'\xb79\xe6\xafiab\x7fq\xd9\xa5\x8aP\xfeV\xdf'
p327
ssS'_Users_ericdouglas_Documents_VirtualEnvs_djangotest_lib_python2_7_site-packages_django_template_smartif'
p328
(dp329
g6
(dp330
g8
S'_Users_ericdouglas_Documents_VirtualEnvs_djangotest_lib_python2_7_site-packages_django_template_smartif.html'
p331
sg10
S'/Users/ericdouglas/Documents/VirtualEnvs/djangotest/lib/python2.7/site-packages/django/template/smartif'
p332
sg12
g13
(g14
g15
NtRp333
(dp334
g18
I1
sg19
I0
sg20
I104
sg21
I0
sg22
I0
sg23
I23
sg24
I0
sbssg25
S'\xccY\xc3\x81\x96~\x01Z\xc2v\xf9\x85\xe8\x88\x87\xfd'
p335
ssS'_Users_ericdouglas_Documents_VirtualEnvs_djangotest_lib_python2_7_site-packages_tastypie_exceptions'
p336
(dp337
g88
(dp338
g8
S'_Users_ericdouglas_Documents_VirtualEnvs_djangotest_lib_python2_7_site-packages_tastypie_exceptions.html'
p339
sg10
S'/Users/ericdouglas/Documents/VirtualEnvs/djangotest/lib/python2.7/site-packages/tastypie/exceptions'
p340
sg12
g13
(g14
g15
NtRp341
(dp342
g18
I1
sg19
I0
sg20
I30
sg21
I0
sg22
I0
sg23
I2
sg24
I0
sbssg94
S'<B\x1aP\xfc;w\xb5\xec\xf7rP(\xec\xda\xf2'
p343
ssS'_Users_ericdouglas_Documents_VirtualEnvs_djangotest_lib_python2_7_site-packages_django_test___init__'
p344
(dp345
g6
(dp346
g38
S'_Users_ericdouglas_Documents_VirtualEnvs_djangotest_lib_python2_7_site-packages_django_test___init__.html'
p347
sg40
S'/Users/ericdouglas/Documents/VirtualEnvs/djangotest/lib/python2.7/site-packages/django/test/__init__'
p348
sg42
g13
(g14
g15
NtRp349
(dp350
g18
I1
sg19
I0
sg20
I3
sg21
I0
sg22
I0
sg23
I0
sg24
I0
sbssg25
S'"\x05`\xc0z\xbe\xc3\xcc%\x11z\x17\x1a\x15\x89\xef'
p351
ssS'_Users_ericdouglas_Documents_VirtualEnvs_djangotest_lib_python2_7_site-packages_django_db_models_sql___init__'
p352
(dp353
g6
(dp354
g38
S'_Users_ericdouglas_Documents_VirtualEnvs_djangotest_lib_python2_7_site-packages_django_db_models_sql___init__.html'
p355
sg40
S'/Users/ericdouglas/Documents/VirtualEnvs/djangotest/lib/python2.7/site-packages/django/db/models/sql/__init__'
p356
sg42
g13
(g14
g15
NtRp357
(dp358
g18
I1
sg19
I0
sg20
I6
sg21
I0
sg22
I0
sg23
I0
sg24
I0
sbssg25
S'\x1c\xc2@\xa8\xcd9\xbe\x01;Hd+\xda.\xae\xd3'
p359
ssS'_Users_ericdouglas_Documents_VirtualEnvs_djangotest_lib_python2_7_site-packages_django_contrib_admin_actions'
p360
(dp361
g6
(dp362
g38
S'_Users_ericdouglas_Documents_VirtualEnvs_djangotest_lib_python2_7_site-packages_django_contrib_admin_actions.html'
p363
sg40
S'/Users/ericdouglas/Documents/VirtualEnvs/djangotest/lib/python2.7/site-packages/django/contrib/admin/actions'
p364
sg42
g13
(g14
g15
NtRp365
(dp366
g18
I1
sg19
I0
sg20
I35
sg21
I0
sg22
I0
sg23
I25
sg24
I0
sbssg25
S'\xbby\xcf\x97\xa0A\x842\x18\xd8\x87/#\xedDi'
p367
ssS'_Users_ericdouglas_Documents_VirtualEnvs_djangotest_lib_python2_7_site-packages_django_utils_termcolors'
p368
(dp369
g6
(dp370
g38
S'_Users_ericdouglas_Documents_VirtualEnvs_djangotest_lib_python2_7_site-packages_django_utils_termcolors.html'
p371
sg40
S'/Users/ericdouglas/Documents/VirtualEnvs/djangotest/lib/python2.7/site-packages/django/utils/termcolors'
p372
sg42
g13
(g14
g15
NtRp373
(dp374
g18
I1
sg19
I0
sg20
I57
sg21
I0
sg22
I0
sg23
I40
sg24
I0
sbssg25
S'\xd7\xa8,\x9e\xfa\xda\xaf\t8h\xcf\xbc+^\x06\xa0'
p375
ssS'_Users_ericdouglas_Documents_VirtualEnvs_djangotest_lib_python2_7_site-packages_django_forms_forms'
p376
(dp377
g6
(dp378
g8
S'_Users_ericdouglas_Documents_VirtualEnvs_djangotest_lib_python2_7_site-packages_django_forms_forms.html'
p379
sg10
S'/Users/ericdouglas/Documents/VirtualEnvs/djangotest/lib/python2.7/site-packages/django/forms/forms'
p380
sg12
g13
(g14
g15
NtRp381
(dp382
g18
I1
sg19
I0
sg20
I290
sg21
I0
sg22
I0
sg23
I209
sg24
I0
sbssg25
S'\xf7\xa4\xfag\xf3\x83b\x95\x1d\xeb\xdf\x84\xca3\xbd\xdd'
p383
ssS'_Users_ericdouglas_Documents_VirtualEnvs_djangotest_lib_python2_7_site-packages_django_db_models_fields_subclassing'
p384
(dp385
g6
(dp386
g38
S'_Users_ericdouglas_Documents_VirtualEnvs_djangotest_lib_python2_7_site-packages_django_db_models_fields_subclassing.html'
p387
sg40
S'/Users/ericdouglas/Documents/VirtualEnvs/djangotest/lib/python2.7/site-packages/django/db/models/fields/subclassing'
p388
sg42
g13
(g14
g15
NtRp389
(dp390
g18
I1
sg19
I0
sg20
I21
sg21
I0
sg22
I0
sg23
I14
sg24
I0
sbssg25
S'\xfd\xd2YH\xdb\x1a6<\xf8\xa0\xbc\x99fr\x0f\x8a'
p391
ssS'_Users_ericdouglas_Documents_VirtualEnvs_djangotest_lib_python2_7_site-packages_django_db_backends_sqlite3___init__'
p392
(dp393
g6
(dp394
g38
S'_Users_ericdouglas_Documents_VirtualEnvs_djangotest_lib_python2_7_site-packages_django_db_backends_sqlite3___init__.html'
p395
sg40
S'/Users/ericdouglas/Documents/VirtualEnvs/djangotest/lib/python2.7/site-packages/django/db/backends/sqlite3/__init__'
p396
sg42
g13
(g14
g15
NtRp397
(dp398
g18
I1
sg19
I0
sg20
I0
sg21
I0
sg22
I0
sg23
I0
sg24
I0
sbssg25
S'\xca\xf5\x9f\x7f\x88\xdfa\x831|T\x1d\xbc}\xa5v'
p399
ssS'_Users_ericdouglas_Documents_VirtualEnvs_djangotest_lib_python2_7_site-packages_django_utils_tree'
p400
(dp401
g6
(dp402
g38
S'_Users_ericdouglas_Documents_VirtualEnvs_djangotest_lib_python2_7_site-packages_django_utils_tree.html'
p403
sg40
S'/Users/ericdouglas/Documents/VirtualEnvs/djangotest/lib/python2.7/site-packages/django/utils/tree'
p404
sg42
g13
(g14
g15
NtRp405
(dp406
g18
I1
sg19
I0
sg20
I50
sg21
I0
sg22
I0
sg23
I20
sg24
I0
sbssg25
S'CJ\x83\xa4\xbcOA;\xf7\xc5r\x9b\x89\xdc\x9a\xa6'
p407
ssS'_Users_ericdouglas_Documents_VirtualEnvs_djangotest_lib_python2_7_site-packages_django_utils_dateparse'
p408
(dp409
g6
(dp410
g8
S'_Users_ericdouglas_Documents_VirtualEnvs_djangotest_lib_python2_7_site-packages_django_utils_dateparse.html'
p411
sg10
S'/Users/ericdouglas/Documents/VirtualEnvs/djangotest/lib/python2.7/site-packages/django/utils/dateparse'
p412
sg12
g13
(g14
g15
NtRp413
(dp414
g18
I1
sg19
I0
sg20
I38
sg21
I0
sg22
I0
sg23
I16
sg24
I0
sbssg25
S'\xc0\x05\xc08\x9c\x17\xc7*\xbeJ\xff\x9b.\xfeS\xe3'
p415
ssS'_Users_ericdouglas_Documents_VirtualEnvs_djangotest_lib_python2_7_site-packages_django_contrib_messages_storage_cookie'
p416
(dp417
g88
(dp418
g8
S'_Users_ericdouglas_Documents_VirtualEnvs_djangotest_lib_python2_7_site-packages_django_contrib_messages_storage_cookie.html'
p419
sg10
S'/Users/ericdouglas/Documents/VirtualEnvs/djangotest/lib/python2.7/site-packages/django/contrib/messages/storage/cookie'
p420
sg12
g13
(g14
g15
NtRp421
(dp422
g18
I1
sg19
I0
sg20
I83
sg21
I0
sg22
I0
sg23
I60
sg24
I0
sbssg94
S'\x9b\xd2%pW\xdc\x00\xe1H\x9f\x12\x15\x07\x96\xc1\xda'
p423
ssS'_Users_ericdouglas_Documents_VirtualEnvs_djangotest_lib_python2_7_site-packages_django_contrib_admin_templatetags_admin_static'
p424
(dp425
g6
(dp426
g38
S'_Users_ericdouglas_Documents_VirtualEnvs_djangotest_lib_python2_7_site-packages_django_contrib_admin_templatetags_admin_static.html'
p427
sg40
S'/Users/ericdouglas/Documents/VirtualEnvs/djangotest/lib/python2.7/site-packages/django/contrib/admin/templatetags/admin_static'
p428
sg42
g13
(g14
g15
NtRp429
(dp430
g18
I1
sg19
I0
sg20
I7
sg21
I0
sg22
I0
sg23
I1
sg24
I0
sbssg25
S'B\xb8!Q\xd1\xca\x98=!\xaf\xceL\x82\xcb\xa2\x01'
p431
ssS'_Users_ericdouglas_Documents_VirtualEnvs_djangotest_lib_python2_7_site-packages_django_db_backends_sqlite3_base'
p432
(dp433
g6
(dp434
g8
S'_Users_ericdouglas_Documents_VirtualEnvs_djangotest_lib_python2_7_site-packages_django_db_backends_sqlite3_base.html'
p435
sg10
S'/Users/ericdouglas/Documents/VirtualEnvs/djangotest/lib/python2.7/site-packages/django/db/backends/sqlite3/base'
p436
sg12
g13
(g14
g15
NtRp437
(dp438
g18
I1
sg19
I0
sg20
I300
sg21
I0
sg22
I0
sg23
I134
sg24
I0
sbssg25
S'\xc0\xb6\xd9\xb7\xa5G\xe2n|\x08\xdc\xc8\xcd\x16\xd9\xb4'
p439
ssS'_Users_ericdouglas_Documents_VirtualEnvs_djangotest_lib_python2_7_site-packages_django_template_loaders_cached'
p440
(dp441
g6
(dp442
g38
S'_Users_ericdouglas_Documents_VirtualEnvs_djangotest_lib_python2_7_site-packages_django_template_loaders_cached.html'
p443
sg40
S'/Users/ericdouglas/Documents/VirtualEnvs/djangotest/lib/python2.7/site-packages/django/template/loaders/cached'
p444
sg42
g13
(g14
g15
NtRp445
(dp446
g18
I1
sg19
I0
sg20
I42
sg21
I0
sg22
I0
sg23
I31
sg24
I0
sbssg25
S'_\x15~\xf5X\xf1\x00\x89\xc2\xd2\xbe\xbd\x93?\xdaK'
p447
ssS'_Users_ericdouglas_Documents_VirtualEnvs_djangotest_lib_python2_7_site-packages_django_conf_global_settings'
p448
(dp449
g6
(dp450
g38
S'_Users_ericdouglas_Documents_VirtualEnvs_djangotest_lib_python2_7_site-packages_django_conf_global_settings.html'
p451
sg40
S'/Users/ericdouglas/Documents/VirtualEnvs/djangotest/lib/python2.7/site-packages/django/conf/global_settings'
p452
sg42
g13
(g14
g15
NtRp453
(dp454
g18
I1
sg19
I0
sg20
I121
sg21
I0
sg22
I0
sg23
I0
sg24
I0
sbssg25
S'Z`\xf5\xd2\x12\xe3\x85\xfe}k\x01\x90x\x1bm\xfe'
p455
ssS'_Users_ericdouglas_Documents_VirtualEnvs_djangotest_lib_python2_7_site-packages_django_utils_crypto'
p456
(dp457
g6
(dp458
g8
S'_Users_ericdouglas_Documents_VirtualEnvs_djangotest_lib_python2_7_site-packages_django_utils_crypto.html'
p459
sg10
S'/Users/ericdouglas/Documents/VirtualEnvs/djangotest/lib/python2.7/site-packages/django/utils/crypto'
p460
sg12
g13
(g14
g15
NtRp461
(dp462
g18
I1
sg19
I0
sg20
I75
sg21
I0
sg22
I0
sg23
I51
sg24
I0
sbssg25
S'\x9ba\xca\xb3\xeein5\xe9\xbe=1\x7f\xf1\x8a\xdb'
p463
ssS'_Users_ericdouglas_Documents_VirtualEnvs_djangotest_lib_python2_7_site-packages_django_db_models_base'
p464
(dp465
g6
(dp466
g8
S'_Users_ericdouglas_Documents_VirtualEnvs_djangotest_lib_python2_7_site-packages_django_db_models_base.html'
p467
sg10
S'/Users/ericdouglas/Documents/VirtualEnvs/djangotest/lib/python2.7/site-packages/django/db/models/base'
p468
sg12
g13
(g14
g15
NtRp469
(dp470
g18
I1
sg19
I0
sg20
I559
sg21
I0
sg22
I0
sg23
I322
sg24
I0
sbssg25
S'\xe4\x98\x91\xd1\xb4\xf4\x11\x819\xfb\xca\xd27\xdbt\xa3'
p471
ssS'_Users_ericdouglas_Documents_VirtualEnvs_djangotest_lib_python2_7_site-packages_django_forms___init__'
p472
(dp473
g6
(dp474
g38
S'_Users_ericdouglas_Documents_VirtualEnvs_djangotest_lib_python2_7_site-packages_django_forms___init__.html'
p475
sg40
S'/Users/ericdouglas/Documents/VirtualEnvs/djangotest/lib/python2.7/site-packages/django/forms/__init__'
p476
sg42
g13
(g14
g15
NtRp477
(dp478
g18
I1
sg19
I0
sg20
I6
sg21
I0
sg22
I0
sg23
I0
sg24
I0
sbssg25
S'\x88c<\x81\x87\x93\x07\xbe\n\x04\x10Lng\xe5\x95'
p479
ssS'_Users_ericdouglas_Documents_VirtualEnvs_djangotest_lib_python2_7_site-packages_dateutil_tzwin'
p480
(dp481
g88
(dp482
g8
S'_Users_ericdouglas_Documents_VirtualEnvs_djangotest_lib_python2_7_site-packages_dateutil_tzwin.html'
p483
sg10
S'/Users/ericdouglas/Documents/VirtualEnvs/djangotest/lib/python2.7/site-packages/dateutil/tzwin'
p484
sg12
g13
(g14
g15
NtRp485
(dp486
g18
I1
sg19
I0
sg20
I105
sg21
I0
sg22
I0
sg23
I102
sg24
I0
sbssg94
S'\xdd\x99\xf5\x9f\x93W\xa54 \xf6n\xb0\xd0a\xd7K'
p487
ssS'_Users_ericdouglas_Documents_VirtualEnvs_djangotest_lib_python2_7_site-packages_django_http_request'
p488
(dp489
g6
(dp490
g8
S'_Users_ericdouglas_Documents_VirtualEnvs_djangotest_lib_python2_7_site-packages_django_http_request.html'
p491
sg10
S'/Users/ericdouglas/Documents/VirtualEnvs/djangotest/lib/python2.7/site-packages/django/http/request'
p492
sg12
g13
(g14
g15
NtRp493
(dp494
g18
I1
sg19
I0
sg20
I287
sg21
I0
sg22
I0
sg23
I194
sg24
I0
sbssg25
S'%\x9fq\xf3\x13\x8cse6a|\r\xf8\xab\x80_'
p495
ssS'_Users_ericdouglas_Documents_VirtualEnvs_djangotest_lib_python2_7_site-packages_tastypie_authorization'
p496
(dp497
g88
(dp498
g8
S'_Users_ericdouglas_Documents_VirtualEnvs_djangotest_lib_python2_7_site-packages_tastypie_authorization.html'
p499
sg10
S'/Users/ericdouglas/Documents/VirtualEnvs/djangotest/lib/python2.7/site-packages/tastypie/authorization'
p500
sg12
g13
(g14
g15
NtRp501
(dp502
g18
I1
sg19
I0
sg20
I106
sg21
I0
sg22
I0
sg23
I74
sg24
I0
sbssg94
S"5G\xca8(JC\x15-B'\xd2S\xeb\x01\x0b"
p503
ssS'_Users_ericdouglas_Documents_VirtualEnvs_djangotest_lib_python2_7_site-packages_django_http_utils'
p504
(dp505
g6
(dp506
g8
S'_Users_ericdouglas_Documents_VirtualEnvs_djangotest_lib_python2_7_site-packages_django_http_utils.html'
p507
sg10
S'/Users/ericdouglas/Documents/VirtualEnvs/djangotest/lib/python2.7/site-packages/django/http/utils'
p508
sg12
g13
(g14
g15
NtRp509
(dp510
g18
I1
sg19
I0
sg20
I15
sg21
I0
sg22
I0
sg23
I8
sg24
I0
sbssg25
S'P\xb8\xbc\xa4b\xb88lJ\x7fP\xe8\xedME\xd1'
p511
ssS'_Users_ericdouglas_Documents_VirtualEnvs_djangotest_lib_python2_7_site-packages_django_template_loader'
p512
(dp513
g6
(dp514
g8
S'_Users_ericdouglas_Documents_VirtualEnvs_djangotest_lib_python2_7_site-packages_django_template_loader.html'
p515
sg10
S'/Users/ericdouglas/Documents/VirtualEnvs/djangotest/lib/python2.7/site-packages/django/template/loader'
p516
sg12
g13
(g14
g15
NtRp517
(dp518
g18
I1
sg19
I0
sg20
I97
sg21
I0
sg22
I0
sg23
I33
sg24
I0
sbssg25
S'n\x8b\xa0\xc2.4\xa9\xfeR\x91R@2\xff\xd1\xf5'
p519
ssS'_Users_ericdouglas_Documents_VirtualEnvs_djangotest_lib_python2_7_site-packages_django_core_serializers_xml_serializer'
p520
(dp521
g6
(dp522
g38
S'_Users_ericdouglas_Documents_VirtualEnvs_djangotest_lib_python2_7_site-packages_django_core_serializers_xml_serializer.html'
p523
sg40
S'/Users/ericdouglas/Documents/VirtualEnvs/djangotest/lib/python2.7/site-packages/django/core/serializers/xml_serializer'
p524
sg42
g13
(g14
g15
NtRp525
(dp526
g18
I1
sg19
I0
sg20
I213
sg21
I0
sg22
I0
sg23
I167
sg24
I0
sbssg25
S'o-\xc7\xd6\xdc\x83\x1a\x93j\xf6\xde\xdc\x88u\xb9\x0e'
p527
ssS'_Users_ericdouglas_Documents_VirtualEnvs_djangotest_lib_python2_7_site-packages_django_utils_decorators'
p528
(dp529
g6
(dp530
g8
S'_Users_ericdouglas_Documents_VirtualEnvs_djangotest_lib_python2_7_site-packages_django_utils_decorators.html'
p531
sg10
S'/Users/ericdouglas/Documents/VirtualEnvs/djangotest/lib/python2.7/site-packages/django/utils/decorators'
p532
sg12
g13
(g14
g15
NtRp533
(dp534
g18
I1
sg19
I0
sg20
I62
sg21
I0
sg22
I0
sg23
I32
sg24
I0
sbssg25
S'd9\x07\x90\xbd,\xcd\x94Q\\n\xd6\xf3\xa1\xe8\x88'
p535
ssS'_Users_ericdouglas_Documents_VirtualEnvs_djangotest_lib_python2_7_site-packages_django_core_serializers_pyyaml'
p536
(dp537
g6
(dp538
g38
S'_Users_ericdouglas_Documents_VirtualEnvs_djangotest_lib_python2_7_site-packages_django_core_serializers_pyyaml.html'
p539
sg40
S'/Users/ericdouglas/Documents/VirtualEnvs/djangotest/lib/python2.7/site-packages/django/core/serializers/pyyaml'
p540
sg42
g13
(g14
g15
NtRp541
(dp542
g18
I1
sg19
I0
sg20
I41
sg21
I0
sg22
I0
sg23
I39
sg24
I0
sbssg25
S' V\xff\xec3\xd0\xae2P\xae\xb6s&\xb5\xc3Z'
p543
ssS'_Users_ericdouglas_Documents_VirtualEnvs_djangotest_lib_python2_7_site-packages_django_utils___init__'
p544
(dp545
g6
(dp546
g38
S'_Users_ericdouglas_Documents_VirtualEnvs_djangotest_lib_python2_7_site-packages_django_utils___init__.html'
p547
sg40
S'/Users/ericdouglas/Documents/VirtualEnvs/djangotest/lib/python2.7/site-packages/django/utils/__init__'
p548
sg42
g13
(g14
g15
NtRp549
(dp550
g18
I1
sg19
I0
sg20
I0
sg21
I0
sg22
I0
sg23
I0
sg24
I0
sbssg25
S'\xca\xf5\x9f\x7f\x88\xdfa\x831|T\x1d\xbc}\xa5v'
p551
ssS'_Users_ericdouglas_Documents_VirtualEnvs_djangotest_lib_python2_7_site-packages_django_utils_html'
p552
(dp553
g6
(dp554
g8
S'_Users_ericdouglas_Documents_VirtualEnvs_djangotest_lib_python2_7_site-packages_django_utils_html.html'
p555
sg10
S'/Users/ericdouglas/Documents/VirtualEnvs/djangotest/lib/python2.7/site-packages/django/utils/html'
p556
sg12
g13
(g14
g15
NtRp557
(dp558
g18
I1
sg19
I0
sg20
I185
sg21
I0
sg22
I0
sg23
I124
sg24
I0
sbssg25
S'x\xf3\x1e<l\x92|\xf9f\x88\x96\xd1\xd6\xa2\x0ca'
p559
ssS'djangotest1_views'
p560
(dp561
g88
(dp562
g8
S'djangotest1_views.html'
p563
sg10
S'djangotest1/views'
p564
sg12
g13
(g14
g15
NtRp565
(dp566
g18
I1
sg19
I0
sg20
I36
sg21
I0
sg22
I0
sg23
I24
sg24
I0
sbssg94
S'\xe6\x05\xf3t\x05\xec\x94\xffjk\r\xc1\xeee\xab\x98'
p567
ssS'_Users_ericdouglas_Documents_VirtualEnvs_djangotest_lib_python2_7_site-packages_django_db_models_constants'
p568
(dp569
g6
(dp570
g38
S'_Users_ericdouglas_Documents_VirtualEnvs_djangotest_lib_python2_7_site-packages_django_db_models_constants.html'
p571
sg40
S'/Users/ericdouglas/Documents/VirtualEnvs/djangotest/lib/python2.7/site-packages/django/db/models/constants'
p572
sg42
g13
(g14
g15
NtRp573
(dp574
g18
I1
sg19
I0
sg20
I1
sg21
I0
sg22
I0
sg23
I0
sg24
I0
sbssg25
S'K\x0f@\x85\xa8\x06~v\xd55D;1,\x0f\x95'
p575
ssS'_Users_ericdouglas_Documents_VirtualEnvs_djangotest_lib_python2_7_site-packages_django_contrib_messages_models'
p576
(dp577
g6
(dp578
g38
S'_Users_ericdouglas_Documents_VirtualEnvs_djangotest_lib_python2_7_site-packages_django_contrib_messages_models.html'
p579
sg40
S'/Users/ericdouglas/Documents/VirtualEnvs/djangotest/lib/python2.7/site-packages/django/contrib/messages/models'
p580
sg42
g13
(g14
g15
NtRp581
(dp582
g18
I1
sg19
I0
sg20
I0
sg21
I0
sg22
I0
sg23
I0
sg24
I0
sbssg25
S'@\xce\xa8\x1c\x878\x17\xf9\x8fE\xaa\xd8\x99\xe1\x85\x93'
p583
ssS'_Users_ericdouglas_Documents_VirtualEnvs_djangotest_lib_python2_7_site-packages_django_utils__os'
p584
(dp585
g6
(dp586
g8
S'_Users_ericdouglas_Documents_VirtualEnvs_djangotest_lib_python2_7_site-packages_django_utils__os.html'
p587
sg10
S'/Users/ericdouglas/Documents/VirtualEnvs/djangotest/lib/python2.7/site-packages/django/utils/_os'
p588
sg12
g13
(g14
g15
NtRp589
(dp590
g18
I1
sg19
I0
sg20
I43
sg21
I0
sg22
I0
sg23
I13
sg24
I0
sbssg25
S'\x95r\xd5\xc6\xeb\x88\x12G3\xcc6\x84U\xf9\xf1\xee'
p591
ssS'_Users_ericdouglas_Documents_VirtualEnvs_djangotest_lib_python2_7_site-packages_django_db_models_fields___init__'
p592
(dp593
g6
(dp594
g8
S'_Users_ericdouglas_Documents_VirtualEnvs_djangotest_lib_python2_7_site-packages_django_db_models_fields___init__.html'
p595
sg10
S'/Users/ericdouglas/Documents/VirtualEnvs/djangotest/lib/python2.7/site-packages/django/db/models/fields/__init__'
p596
sg12
g13
(g14
g15
NtRp597
(dp598
g18
I1
sg19
I0
sg20
I849
sg21
I0
sg22
I0
sg23
I408
sg24
I0
sbssg25
S'\xb1k\xa6z\xaf\x8c\xb9\xd3\xac Z1~\xce\x0c9'
p599
ssS'_Users_ericdouglas_Documents_VirtualEnvs_djangotest_lib_python2_7_site-packages_django_contrib___init__'
p600
(dp601
g6
(dp602
g38
S'_Users_ericdouglas_Documents_VirtualEnvs_djangotest_lib_python2_7_site-packages_django_contrib___init__.html'
p603
sg40
S'/Users/ericdouglas/Documents/VirtualEnvs/djangotest/lib/python2.7/site-packages/django/contrib/__init__'
p604
sg42
g13
(g14
g15
NtRp605
(dp606
g18
I1
sg19
I0
sg20
I0
sg21
I0
sg22
I0
sg23
I0
sg24
I0
sbssg25
S'\xca\xf5\x9f\x7f\x88\xdfa\x831|T\x1d\xbc}\xa5v'
p607
ssS'_Users_ericdouglas_Documents_VirtualEnvs_djangotest_lib_python2_7_site-packages_django_dispatch_saferef'
p608
(dp609
g6
(dp610
g8
S'_Users_ericdouglas_Documents_VirtualEnvs_djangotest_lib_python2_7_site-packages_django_dispatch_saferef.html'
p611
sg10
S'/Users/ericdouglas/Documents/VirtualEnvs/djangotest/lib/python2.7/site-packages/django/dispatch/saferef'
p612
sg12
g13
(g14
g15
NtRp613
(dp614
g18
I1
sg19
I0
sg20
I84
sg21
I0
sg22
I0
sg23
I24
sg24
I0
sbssg25
S'(,\x85\xbe@\xd7\xd0\xa0\xe7\x83\x18\xd4\xe6\x0f\x8f\xa4'
p615
ssS'_Users_ericdouglas_Documents_VirtualEnvs_djangotest_lib_python2_7_site-packages_django_utils_synch'
p616
(dp617
g6
(dp618
g38
S'_Users_ericdouglas_Documents_VirtualEnvs_djangotest_lib_python2_7_site-packages_django_utils_synch.html'
p619
sg40
S'/Users/ericdouglas/Documents/VirtualEnvs/djangotest/lib/python2.7/site-packages/django/utils/synch'
p620
sg42
g13
(g14
g15
NtRp621
(dp622
g18
I1
sg19
I0
sg20
I59
sg21
I0
sg22
I0
sg23
I41
sg24
I0
sbssg25
S'\x1d\x7f\x84\xd0\xf3\xbc\xb6\xf4\x9c\xa7\x06c\xf5A\xc70'
p623
ssS'_Users_ericdouglas_Documents_VirtualEnvs_djangotest_lib_python2_7_site-packages_django_utils_regex_helper'
p624
(dp625
g6
(dp626
g8
S'_Users_ericdouglas_Documents_VirtualEnvs_djangotest_lib_python2_7_site-packages_django_utils_regex_helper.html'
p627
sg10
S'/Users/ericdouglas/Documents/VirtualEnvs/djangotest/lib/python2.7/site-packages/django/utils/regex_helper'
p628
sg12
g13
(g14
g15
NtRp629
(dp630
g18
I1
sg19
I0
sg20
I188
sg21
I0
sg22
I0
sg23
I90
sg24
I0
sbssg25
S'\x18U0\xbc\xa9\xf2\xe9\xf5\x9bKw\x0c\xd5\xe1\xf7d'
p631
ssS'_Users_ericdouglas_Documents_VirtualEnvs_djangotest_lib_python2_7_site-packages_django_utils_datastructures'
p632
(dp633
g6
(dp634
g8
S'_Users_ericdouglas_Documents_VirtualEnvs_djangotest_lib_python2_7_site-packages_django_utils_datastructures.html'
p635
sg10
S'/Users/ericdouglas/Documents/VirtualEnvs/djangotest/lib/python2.7/site-packages/django/utils/datastructures'
p636
sg12
g13
(g14
g15
NtRp637
(dp638
g18
I1
sg19
I0
sg20
I307
sg21
I0
sg22
I0
sg23
I155
sg24
I0
sbssg25
S'\x08\xa2\x96\xe3\xfe\xb7\xac\x1d\x1bv\x0f\xb1\xdc\x17\x82k'
p639
ssS'_Users_ericdouglas_Documents_VirtualEnvs_djangotest_lib_python2_7_site-packages_tastypie_cache'
p640
(dp641
g88
(dp642
g8
S'_Users_ericdouglas_Documents_VirtualEnvs_djangotest_lib_python2_7_site-packages_tastypie_cache.html'
p643
sg10
S'/Users/ericdouglas/Documents/VirtualEnvs/djangotest/lib/python2.7/site-packages/tastypie/cache'
p644
sg12
g13
(g14
g15
NtRp645
(dp646
g18
I1
sg19
I0
sg20
I36
sg21
I0
sg22
I0
sg23
I19
sg24
I0
sbssg94
S'(\xbf\xe3\x98l\x10\x02U\xf5(\xfe\x16C\xf6\xb6\xcb'
p647
ssS'_Users_ericdouglas_Documents_VirtualEnvs_djangotest_lib_python2_7_site-packages_django_middleware_cache'
p648
(dp649
g6
(dp650
g38
S'_Users_ericdouglas_Documents_VirtualEnvs_djangotest_lib_python2_7_site-packages_django_middleware_cache.html'
p651
sg40
S'/Users/ericdouglas/Documents/VirtualEnvs/djangotest/lib/python2.7/site-packages/django/middleware/cache'
p652
sg42
g13
(g14
g15
NtRp653
(dp654
g18
I1
sg19
I0
sg20
I96
sg21
I0
sg22
I0
sg23
I82
sg24
I0
sbssg25
S'\xd4T\x08\xc9\x9d-\x995\x90\x9cXmH\xb6\xdai'
p655
ssS'_Users_ericdouglas_Documents_VirtualEnvs_djangotest_lib_python2_7_site-packages_six'
p656
(dp657
g88
(dp658
g8
S'_Users_ericdouglas_Documents_VirtualEnvs_djangotest_lib_python2_7_site-packages_six.html'
p659
sg10
S'/Users/ericdouglas/Documents/VirtualEnvs/djangotest/lib/python2.7/site-packages/six'
p660
sg12
g13
(g14
g15
NtRp661
(dp662
g18
I1
sg19
I0
sg20
I390
sg21
I0
sg22
I0
sg23
I189
sg24
I0
sbssg94
S'\xed(\xa4\xa8\x15\xbf\xfb\x8e\x8c8\xa7d>\xec\xf1\xe9'
p663
ssS'_Users_ericdouglas_Documents_VirtualEnvs_djangotest_lib_python2_7_site-packages_django_db_models_sql_subqueries'
p664
(dp665
g6
(dp666
g38
S'_Users_ericdouglas_Documents_VirtualEnvs_djangotest_lib_python2_7_site-packages_django_db_models_sql_subqueries.html'
p667
sg40
S'/Users/ericdouglas/Documents/VirtualEnvs/djangotest/lib/python2.7/site-packages/django/db/models/sql/subqueries'
p668
sg42
g13
(g14
g15
NtRp669
(dp670
g18
I1
sg19
I0
sg20
I156
sg21
I0
sg22
I0
sg23
I99
sg24
I0
sbssg25
S'\xe0\x99]K\x861q\x1a\xf7\x11\xa3}\xaf\x8f\x93^'
p671
ssS'_Users_ericdouglas_Documents_VirtualEnvs_djangotest_lib_python2_7_site-packages_django_http_response'
p672
(dp673
g6
(dp674
S'html_filename'
p675
S'_Users_ericdouglas_Documents_VirtualEnvs_djangotest_lib_python2_7_site-packages_django_http_response.html'
p676
sS'name'
p677
S'/Users/ericdouglas/Documents/VirtualEnvs/djangotest/lib/python2.7/site-packages/django/http/response'
p678
sS'nums'
p679
g13
(g14
g15
NtRp680
(dp681
g18
I1
sg19
I0
sg20
I242
sg21
I0
sg22
I0
sg23
I92
sg24
I0
sbssg25
S'\xd0\xb1\xe3*\x88\xac\x91 \x86\xb3\xf4\xd2\xfd-\x12\x93'
p682
ssS'_Users_ericdouglas_Documents_VirtualEnvs_djangotest_lib_python2_7_site-packages_django_contrib_admin_sites'
p683
(dp684
g6
(dp685
g8
S'_Users_ericdouglas_Documents_VirtualEnvs_djangotest_lib_python2_7_site-packages_django_contrib_admin_sites.html'
p686
sg10
S'/Users/ericdouglas/Documents/VirtualEnvs/djangotest/lib/python2.7/site-packages/django/contrib/admin/sites'
p687
sg12
g13
(g14
g15
NtRp688
(dp689
g18
I1
sg19
I0
sg20
I204
sg21
I0
sg22
I0
sg23
I120
sg24
I0
sbssg25
S'\xba)\xd3\n\x19\x80\xbb\xe3\xd6\xb2\xf4_+\xed\x9c0'
p690
ssS'_Users_ericdouglas_Documents_VirtualEnvs_djangotest_lib_python2_7_site-packages_django_conf___init__'
p691
(dp692
g6
(dp693
g38
S'_Users_ericdouglas_Documents_VirtualEnvs_djangotest_lib_python2_7_site-packages_django_conf___init__.html'
p694
sg40
S'/Users/ericdouglas/Documents/VirtualEnvs/djangotest/lib/python2.7/site-packages/django/conf/__init__'
p695
sg42
g13
(g14
g15
NtRp696
(dp697
g18
I1
sg19
I0
sg20
I101
sg21
I0
sg22
I0
sg23
I32
sg24
I0
sbssg25
S"UhU\x132\xcc\xb9f\xba'\x99\xbc=;\xb2\x96"
p698
ssS'_Users_ericdouglas_Documents_VirtualEnvs_djangotest_lib_python2_7_site-packages_django_core_servers_basehttp'
p699
(dp700
g6
(dp701
g38
S'_Users_ericdouglas_Documents_VirtualEnvs_djangotest_lib_python2_7_site-packages_django_core_servers_basehttp.html'
p702
sg40
S'/Users/ericdouglas/Documents/VirtualEnvs/djangotest/lib/python2.7/site-packages/django/core/servers/basehttp'
p703
sg42
g13
(g14
g15
NtRp704
(dp705
g18
I1
sg19
I0
sg20
I89
sg21
I0
sg22
I0
sg23
I59
sg24
I0
sbssg25
S'\xeb\xd2X,\xd9\x941\xde7\x1e\xc6x\xbf\x11!\x1c'
p706
ssS'_Users_ericdouglas_Documents_VirtualEnvs_djangotest_lib_python2_7_site-packages_django___init__'
p707
(dp708
g6
(dp709
g38
S'_Users_ericdouglas_Documents_VirtualEnvs_djangotest_lib_python2_7_site-packages_django___init__.html'
p710
sg40
S'/Users/ericdouglas/Documents/VirtualEnvs/djangotest/lib/python2.7/site-packages/django/__init__'
p711
sg42
g13
(g14
g15
NtRp712
(dp713
g18
I1
sg19
I0
sg20
I4
sg21
I0
sg22
I0
sg23
I0
sg24
I0
sbssg25
S'4\xccN\x98\x9e\xfdc\x1e\xf9\xd6\xc6\xb6\xfb\x19Q\xbf'
p714
ssS'_Users_ericdouglas_Documents_VirtualEnvs_djangotest_lib_python2_7_site-packages_django_utils_version'
p715
(dp716
g6
(dp717
g38
S'_Users_ericdouglas_Documents_VirtualEnvs_djangotest_lib_python2_7_site-packages_django_utils_version.html'
p718
sg40
S'/Users/ericdouglas/Documents/VirtualEnvs/djangotest/lib/python2.7/site-packages/django/utils/version'
p719
sg42
g13
(g14
g15
NtRp720
(dp721
g18
I1
sg19
I0
sg20
I29
sg21
I0
sg22
I0
sg23
I15
sg24
I0
sbssg25
S'(\xf2@\x12{\x98\xeb\xf0L\x9ct\xec\x05Ap('
p722
ssS'_Users_ericdouglas_Documents_VirtualEnvs_djangotest_lib_python2_7_site-packages_django_dispatch_dispatcher'
p723
(dp724
g6
(dp725
g8
S'_Users_ericdouglas_Documents_VirtualEnvs_djangotest_lib_python2_7_site-packages_django_dispatch_dispatcher.html'
p726
sg10
S'/Users/ericdouglas/Documents/VirtualEnvs/djangotest/lib/python2.7/site-packages/django/dispatch/dispatcher'
p727
sg12
g13
(g14
g15
NtRp728
(dp729
g18
I1
sg19
I0
sg20
I122
sg21
I0
sg22
I0
sg23
I22
sg24
I0
sbssg25
S'\xe0L6\xaa0\xbb2}\xb6o-\xe2\x87\x8e>0'
p730
ssS'_Users_ericdouglas_Documents_VirtualEnvs_djangotest_lib_python2_7_site-packages_tastypie_utils_urls'
p731
(dp732
g88
(dp733
g8
S'_Users_ericdouglas_Documents_VirtualEnvs_djangotest_lib_python2_7_site-packages_tastypie_utils_urls.html'
p734
sg10
S'/Users/ericdouglas/Documents/VirtualEnvs/djangotest/lib/python2.7/site-packages/tastypie/utils/urls'
p735
sg12
g13
(g14
g15
NtRp736
(dp737
g18
I1
sg19
I0
sg20
I6
sg21
I0
sg22
I0
sg23
I1
sg24
I0
sbssg94
S'\xbf\xbcC\x9f\xc4\xc2Q\xfd\x8a\xa7\xc2\xf8\x16\xedD\xd2'
p738
ssS'article___init__'
p739
(dp740
g6
(dp741
g38
S'article___init__.html'
p742
sg40
S'article/__init__'
p743
sg42
g13
(g14
g15
NtRp744
(dp745
g18
I1
sg19
I0
sg20
I0
sg21
I0
sg22
I0
sg23
I0
sg24
I0
sbssg25
S'\xca\xf5\x9f\x7f\x88\xdfa\x831|T\x1d\xbc}\xa5v'
p746
ssS'_Users_ericdouglas_Documents_VirtualEnvs_djangotest_lib_python2_7_site-packages_django_db_models_query_utils'
p747
(dp748
g6
(dp749
g38
S'_Users_ericdouglas_Documents_VirtualEnvs_djangotest_lib_python2_7_site-packages_django_db_models_query_utils.html'
p750
sg40
S'/Users/ericdouglas/Documents/VirtualEnvs/djangotest/lib/python2.7/site-packages/django/db/models/query_utils'
p751
sg42
g13
(g14
g15
NtRp752
(dp753
g18
I1
sg19
I0
sg20
I100
sg21
I0
sg22
I0
sg23
I72
sg24
I0
sbssg25
S'\x9cs\xd5{\xf5\x9b\xb7|;\xf4\x93\xea\xe4\x850\xc9'
p754
ssS'_Users_ericdouglas_Documents_VirtualEnvs_djangotest_lib_python2_7_site-packages_django_contrib_sessions_management___init__'
p755
(dp756
g6
(dp757
g38
S'_Users_ericdouglas_Documents_VirtualEnvs_djangotest_lib_python2_7_site-packages_django_contrib_sessions_management___init__.html'
p758
sg40
S'/Users/ericdouglas/Documents/VirtualEnvs/djangotest/lib/python2.7/site-packages/django/contrib/sessions/management/__init__'
p759
sg42
g13
(g14
g15
NtRp760
(dp761
g18
I1
sg19
I0
sg20
I0
sg21
I0
sg22
I0
sg23
I0
sg24
I0
sbssg25
S'\xca\xf5\x9f\x7f\x88\xdfa\x831|T\x1d\xbc}\xa5v'
p762
ssS'_Users_ericdouglas_Documents_VirtualEnvs_djangotest_lib_python2_7_site-packages_django_contrib_admin_validation'
p763
(dp764
g6
(dp765
g38
S'_Users_ericdouglas_Documents_VirtualEnvs_djangotest_lib_python2_7_site-packages_django_contrib_admin_validation.html'
p766
sg40
S'/Users/ericdouglas/Documents/VirtualEnvs/djangotest/lib/python2.7/site-packages/django/contrib/admin/validation'
p767
sg42
g13
(g14
g15
NtRp768
(dp769
g18
I1
sg19
I0
sg20
I254
sg21
I0
sg22
I0
sg23
I209
sg24
I0
sbssg25
S'\xe83\x90\x100+\x1f#\xce\xa0\xfc\xd0o\xb4\r\xa2'
p770
ssS'_Users_ericdouglas_Documents_VirtualEnvs_djangotest_lib_python2_7_site-packages_django_core_context_processors'
p771
(dp772
g88
(dp773
g8
S'_Users_ericdouglas_Documents_VirtualEnvs_djangotest_lib_python2_7_site-packages_django_core_context_processors.html'
p774
sg10
S'/Users/ericdouglas/Documents/VirtualEnvs/djangotest/lib/python2.7/site-packages/django/core/context_processors'
p775
sg12
g13
(g14
g15
NtRp776
(dp777
g18
I1
sg19
I0
sg20
I37
sg21
I0
sg22
I0
sg23
I18
sg24
I0
sbssg94
S'\xf1\xb1\x12.\xb1\x98\xef7\xb2\x06b\xf5\x98\x91\xab\x94'
p778
ssS'_Users_ericdouglas_Documents_VirtualEnvs_djangotest_lib_python2_7_site-packages_django_utils_functional'
p779
(dp780
g6
(dp781
g8
S'_Users_ericdouglas_Documents_VirtualEnvs_djangotest_lib_python2_7_site-packages_django_utils_functional.html'
p782
sg10
S'/Users/ericdouglas/Documents/VirtualEnvs/djangotest/lib/python2.7/site-packages/django/utils/functional'
p783
sg12
g13
(g14
g15
NtRp784
(dp785
g18
I1
sg19
I0
sg20
I222
sg21
I0
sg22
I0
sg23
I77
sg24
I0
sbssg25
S'\x8amu\xed5\xeb\xc5\xdb\x9e\x88 Q1\x10\xb9\xe5'
p786
ssS'_Users_ericdouglas_Documents_VirtualEnvs_djangotest_lib_python2_7_site-packages_django_db_models_manager'
p787
(dp788
g6
(dp789
g8
S'_Users_ericdouglas_Documents_VirtualEnvs_djangotest_lib_python2_7_site-packages_django_db_models_manager.html'
p790
sg10
S'/Users/ericdouglas/Documents/VirtualEnvs/djangotest/lib/python2.7/site-packages/django/db/models/manager'
p791
sg12
g13
(g14
g15
NtRp792
(dp793
g18
I1
sg19
I0
sg20
I170
sg21
I0
sg22
I0
sg23
I43
sg24
I0
sbssg25
S'(\x92\x05`\x1au\xd0\x81hvz"K\xd2\x9eq'
p794
ssS'_Users_ericdouglas_Documents_VirtualEnvs_djangotest_lib_python2_7_site-packages_django_contrib_admin_helpers'
p795
(dp796
g6
(dp797
g38
S'_Users_ericdouglas_Documents_VirtualEnvs_djangotest_lib_python2_7_site-packages_django_contrib_admin_helpers.html'
p798
sg40
S'/Users/ericdouglas/Documents/VirtualEnvs/djangotest/lib/python2.7/site-packages/django/contrib/admin/helpers'
p799
sg42
g13
(g14
g15
NtRp800
(dp801
g18
I1
sg19
I0
sg20
I243
sg21
I0
sg22
I0
sg23
I178
sg24
I0
sbssg25
S'\xa0\x1e\xb1\xeb\x89\x94\xf4\x89\x07\t\xfd\x17\x0b\x94\x05\x07'
p802
ssS'_Users_ericdouglas_Documents_VirtualEnvs_djangotest_lib_python2_7_site-packages_django_contrib_sessions_backends_db'
p803
(dp804
g6
(dp805
g8
S'_Users_ericdouglas_Documents_VirtualEnvs_djangotest_lib_python2_7_site-packages_django_contrib_sessions_backends_db.html'
p806
sg10
S'/Users/ericdouglas/Documents/VirtualEnvs/djangotest/lib/python2.7/site-packages/django/contrib/sessions/backends/db'
p807
sg12
g13
(g14
g15
NtRp808
(dp809
g18
I1
sg19
I0
sg20
I53
sg21
I0
sg22
I0
sg23
I37
sg24
I0
sbssg25
S'\xeb\xf0Z\xa2]:c\\\xaf0{\xe9\xed\xf48\xbb'
p810
ssS'_Users_ericdouglas_Documents_VirtualEnvs_djangotest_lib_python2_7_site-packages_django_http_cookie'
p811
(dp812
g6
(dp813
g8
S'_Users_ericdouglas_Documents_VirtualEnvs_djangotest_lib_python2_7_site-packages_django_http_cookie.html'
p814
sg10
S'/Users/ericdouglas/Documents/VirtualEnvs/djangotest/lib/python2.7/site-packages/django/http/cookie'
p815
sg12
g13
(g14
g15
NtRp816
(dp817
g18
I1
sg19
I0
sg20
I53
sg21
I0
sg22
I0
sg23
I28
sg24
I0
sbssg25
S"D\x9d*^\xc3\x12'\x12\xc9\xcc\x04L3\x96\xa2\xc5"
p818
ssS'_Users_ericdouglas_Documents_VirtualEnvs_djangotest_lib_python2_7_site-packages_django_db_models_fields_files'
p819
(dp820
g6
(dp821
g8
S'_Users_ericdouglas_Documents_VirtualEnvs_djangotest_lib_python2_7_site-packages_django_db_models_fields_files.html'
p822
sg10
S'/Users/ericdouglas/Documents/VirtualEnvs/djangotest/lib/python2.7/site-packages/django/db/models/fields/files'
p823
sg12
g13
(g14
g15
NtRp824
(dp825
g18
I1
sg19
I0
sg20
I206
sg21
I0
sg22
I0
sg23
I102
sg24
I0
sbssg25
S'\x91_\x84X\xa4`4k\x82I\x9c\xf0\xf3\xf2\xa4D'
p826
ssS'_Users_ericdouglas_Documents_VirtualEnvs_djangotest_lib_python2_7_site-packages_django_contrib_auth_middleware'
p827
(dp828
g88
(dp829
g8
S'_Users_ericdouglas_Documents_VirtualEnvs_djangotest_lib_python2_7_site-packages_django_contrib_auth_middleware.html'
p830
sg10
S'/Users/ericdouglas/Documents/VirtualEnvs/djangotest/lib/python2.7/site-packages/django/contrib/auth/middleware'
p831
sg12
g13
(g14
g15
NtRp832
(dp833
g18
I1
sg19
I0
sg20
I44
sg21
I0
sg22
I0
sg23
I30
sg24
I0
sbssg94
S'q\xee\x0e\xf0\x11>vi\xf4M\x8aq\x8c\x91YN'
p834
ssS'_Users_ericdouglas_Documents_VirtualEnvs_djangotest_lib_python2_7_site-packages_django_core_management_commands_flush'
p835
(dp836
g6
(dp837
g38
S'_Users_ericdouglas_Documents_VirtualEnvs_djangotest_lib_python2_7_site-packages_django_core_management_commands_flush.html'
p838
sg40
S'/Users/ericdouglas/Documents/VirtualEnvs/djangotest/lib/python2.7/site-packages/django/core/management/commands/flush'
p839
sg42
g13
(g14
g15
NtRp840
(dp841
g18
I1
sg19
I0
sg20
I51
sg21
I0
sg22
I0
sg23
I5
sg24
I0
sbssg25
S'{\t\xbf\xdc\xedCvSo!\xa9T\x0f\x8e\xd1\x8b'
p842
ssS'_Users_ericdouglas_Documents_VirtualEnvs_djangotest_lib_python2_7_site-packages_django_views_decorators_debug'
p843
(dp844
g88
(dp845
g8
S'_Users_ericdouglas_Documents_VirtualEnvs_djangotest_lib_python2_7_site-packages_django_views_decorators_debug.html'
p846
sg10
S'/Users/ericdouglas/Documents/VirtualEnvs/djangotest/lib/python2.7/site-packages/django/views/decorators/debug'
p847
sg12
g13
(g14
g15
NtRp848
(dp849
g18
I1
sg19
I0
sg20
I21
sg21
I0
sg22
I0
sg23
I13
sg24
I0
sbssg94
S'e\xeaj\x7f\x072\x85\xb8\x96\xaf\xb1jd\xc4\xcac'
p850
ssS'_Users_ericdouglas_Documents_VirtualEnvs_djangotest_lib_python2_7_site-packages_django_utils_log'
p851
(dp852
g6
(dp853
g38
S'_Users_ericdouglas_Documents_VirtualEnvs_djangotest_lib_python2_7_site-packages_django_utils_log.html'
p854
sg40
S'/Users/ericdouglas/Documents/VirtualEnvs/djangotest/lib/python2.7/site-packages/django/utils/log'
p855
sg42
g13
(g14
g15
NtRp856
(dp857
g18
I1
sg19
I0
sg20
I61
sg21
I0
sg22
I0
sg23
I34
sg24
I0
sbssg25
S'Y\xb0\x80\xba\xbb\x11\x8a\xea\xe7\\\x98b\xa0\x9e;6'
p858
ssS'_Users_ericdouglas_Documents_VirtualEnvs_djangotest_lib_python2_7_site-packages_django_utils_deprecation'
p859
(dp860
g6
(dp861
g38
S'_Users_ericdouglas_Documents_VirtualEnvs_djangotest_lib_python2_7_site-packages_django_utils_deprecation.html'
p862
sg40
S'/Users/ericdouglas/Documents/VirtualEnvs/djangotest/lib/python2.7/site-packages/django/utils/deprecation'
p863
sg42
g13
(g14
g15
NtRp864
(dp865
g18
I1
sg19
I0
sg20
I33
sg21
I0
sg22
I0
sg23
I5
sg24
I0
sbssg25
S'\xeb\x85\x18\x9f2\xed\x0bV\xb3\xe0\xad\xf8\x03B\x94\xb1'
p866
ssS'_Users_ericdouglas_Documents_VirtualEnvs_djangotest_lib_python2_7_site-packages_django_templatetags_static'
p867
(dp868
g6
(dp869
g8
S'_Users_ericdouglas_Documents_VirtualEnvs_djangotest_lib_python2_7_site-packages_django_templatetags_static.html'
p870
sg10
S'/Users/ericdouglas/Documents/VirtualEnvs/djangotest/lib/python2.7/site-packages/django/templatetags/static'
p871
sg12
g13
(g14
g15
NtRp872
(dp873
g18
I1
sg19
I0
sg20
I68
sg21
I0
sg22
I0
sg23
I27
sg24
I0
sbssg25
S'\xb1\xa1Mo\xf6]X\xf9-\xc6Dd\x1b\x8cK\xb4'
p874
ssS'_Users_ericdouglas_Documents_VirtualEnvs_djangotest_lib_python2_7_site-packages_django_utils_timesince'
p875
(dp876
g6
(dp877
g38
S'_Users_ericdouglas_Documents_VirtualEnvs_djangotest_lib_python2_7_site-packages_django_utils_timesince.html'
p878
sg40
S'/Users/ericdouglas/Documents/VirtualEnvs/djangotest/lib/python2.7/site-packages/django/utils/timesince'
p879
sg42
g13
(g14
g15
NtRp880
(dp881
g18
I1
sg19
I0
sg20
I30
sg21
I0
sg22
I0
sg23
I23
sg24
I0
sbssg25
S'\xa2]\xb6\x8b\x16\xc6\xbaB\xa7\x06\xa5\xb2\x8a,E\xdc'
p882
ssS'_Users_ericdouglas_Documents_VirtualEnvs_djangotest_lib_python2_7_site-packages_django_core_files_storage'
p883
(dp884
g6
(dp885
g38
S'_Users_ericdouglas_Documents_VirtualEnvs_djangotest_lib_python2_7_site-packages_django_core_files_storage.html'
p886
sg40
S'/Users/ericdouglas/Documents/VirtualEnvs/djangotest/lib/python2.7/site-packages/django/core/files/storage'
p887
sg42
g13
(g14
g15
NtRp888
(dp889
g18
I1
sg19
I0
sg20
I146
sg21
I0
sg22
I0
sg23
I100
sg24
I0
sbssg25
S'`e7\xff\x82\xaf\xd0\x0c\x98\xe1p\xaf[\xbd*\x14'
p890
ssS'_Users_ericdouglas_Documents_VirtualEnvs_djangotest_lib_python2_7_site-packages_django_contrib_admin_util'
p891
(dp892
g6
(dp893
g38
S'_Users_ericdouglas_Documents_VirtualEnvs_djangotest_lib_python2_7_site-packages_django_contrib_admin_util.html'
p894
sg40
S'/Users/ericdouglas/Documents/VirtualEnvs/djangotest/lib/python2.7/site-packages/django/contrib/admin/util'
p895
sg42
g13
(g14
g15
NtRp896
(dp897
g18
I1
sg19
I0
sg20
I284
sg21
I0
sg22
I0
sg23
I239
sg24
I0
sbssg25
S'\xe2\x1d\xd3\t\xf0\x88\xb8\xe7^\x15\x17\xd4A_U\xaa'
p898
ssS'_Users_ericdouglas_Documents_VirtualEnvs_djangotest_lib_python2_7_site-packages_django_utils_safestring'
p899
(dp900
g6
(dp901
g8
S'_Users_ericdouglas_Documents_VirtualEnvs_djangotest_lib_python2_7_site-packages_django_utils_safestring.html'
p902
sg10
S'/Users/ericdouglas/Documents/VirtualEnvs/djangotest/lib/python2.7/site-packages/django/utils/safestring'
p903
sg12
g13
(g14
g15
NtRp904
(dp905
g18
I1
sg19
I0
sg20
I62
sg21
I0
sg22
I0
sg23
I26
sg24
I0
sbssg25
S'A\x95\xd2GR~\x9c\x1c\xb4$\xd0\x10\x85/\xa36'
p906
ssS'_Users_ericdouglas_Documents_VirtualEnvs_djangotest_lib_python2_7_site-packages_django_core_serializers_json'
p907
(dp908
g6
(dp909
g38
S'_Users_ericdouglas_Documents_VirtualEnvs_djangotest_lib_python2_7_site-packages_django_core_serializers_json.html'
p910
sg40
S'/Users/ericdouglas/Documents/VirtualEnvs/djangotest/lib/python2.7/site-packages/django/core/serializers/json'
p911
sg42
g13
(g14
g15
NtRp912
(dp913
g18
I1
sg19
I0
sg20
I73
sg21
I0
sg22
I0
sg23
I53
sg24
I0
sbssg25
S'FK0q\xd5\x9c\xfb~\xba\xf1\xfa\x89\xe2\xabOr'
p914
ssS'_Users_ericdouglas_Documents_VirtualEnvs_djangotest_lib_python2_7_site-packages_django_contrib_admin_forms'
p915
(dp916
g6
(dp917
g38
S'_Users_ericdouglas_Documents_VirtualEnvs_djangotest_lib_python2_7_site-packages_django_contrib_admin_forms.html'
p918
sg40
S'/Users/ericdouglas/Documents/VirtualEnvs/djangotest/lib/python2.7/site-packages/django/contrib/admin/forms'
p919
sg42
g13
(g14
g15
NtRp920
(dp921
g18
I1
sg19
I0
sg20
I20
sg21
I0
sg22
I0
sg23
I11
sg24
I0
sbssg25
S'`\xba\xc8\xf7\xde\xa2\xd6\nlf\x13  K\xed\x00'
p922
ssS'_Users_ericdouglas_Documents_VirtualEnvs_djangotest_lib_python2_7_site-packages_django_core_management_validation'
p923
(dp924
g6
(dp925
g38
S'_Users_ericdouglas_Documents_VirtualEnvs_djangotest_lib_python2_7_site-packages_django_core_management_validation.html'
p926
sg40
S'/Users/ericdouglas/Documents/VirtualEnvs/djangotest/lib/python2.7/site-packages/django/core/management/validation'
p927
sg42
g13
(g14
g15
NtRp928
(dp929
g18
I1
sg19
I0
sg20
I253
sg21
I0
sg22
I0
sg23
I125
sg24
I0
sbssg25
S'f-\xe3\xaa\xc8\xd0\x10\r\xf8\x9f\x88J&\x98\xc8\x0b'
p930
ssS'_Users_ericdouglas_Documents_VirtualEnvs_djangotest_lib_python2_7_site-packages_django_test_runner'
p931
(dp932
g6
(dp933
g38
S'_Users_ericdouglas_Documents_VirtualEnvs_djangotest_lib_python2_7_site-packages_django_test_runner.html'
p934
sg40
S'/Users/ericdouglas/Documents/VirtualEnvs/djangotest/lib/python2.7/site-packages/django/test/runner'
p935
sg42
g13
(g14
g15
NtRp936
(dp937
g18
I1
sg19
I0
sg20
I150
sg21
I0
sg22
I0
sg23
I15
sg24
I0
sbssg25
S'U\xf8\x8a\xf6\xebO\xeb\xea\xddt\x1e\xab\xed\xa5\xfa&'
p938
ssS'_Users_ericdouglas_Documents_VirtualEnvs_djangotest_lib_python2_7_site-packages_django_core_files_move'
p939
(dp940
g6
(dp941
g38
S'_Users_ericdouglas_Documents_VirtualEnvs_djangotest_lib_python2_7_site-packages_django_core_files_move.html'
p942
sg40
S'/Users/ericdouglas/Documents/VirtualEnvs/djangotest/lib/python2.7/site-packages/django/core/files/move'
p943
sg42
g13
(g14
g15
NtRp944
(dp945
g18
I1
sg19
I0
sg20
I47
sg21
I0
sg22
I0
sg23
I40
sg24
I0
sbssg25
S'u\xd5\xf9R\x96\xb4M\xdd;\r\x98\x12\xcd\x1a\tH'
p946
ssS'_Users_ericdouglas_Documents_VirtualEnvs_djangotest_lib_python2_7_site-packages_django_core_management_commands_syncdb'
p947
(dp948
g6
(dp949
g38
S'_Users_ericdouglas_Documents_VirtualEnvs_djangotest_lib_python2_7_site-packages_django_core_management_commands_syncdb.html'
p950
sg40
S'/Users/ericdouglas/Documents/VirtualEnvs/djangotest/lib/python2.7/site-packages/django/core/management/commands/syncdb'
p951
sg42
g13
(g14
g15
NtRp952
(dp953
g18
I1
sg19
I0
sg20
I100
sg21
I0
sg22
I0
sg23
I18
sg24
I0
sbssg25
S'\xe0\xc7\xac\x19\x06\xf8\x1b\xd5\xb6 E\x95-?{k'
p954
ssS'_Users_ericdouglas_Documents_VirtualEnvs_djangotest_lib_python2_7_site-packages_django_forms_util'
p955
(dp956
g6
(dp957
g38
S'_Users_ericdouglas_Documents_VirtualEnvs_djangotest_lib_python2_7_site-packages_django_forms_util.html'
p958
sg40
S'/Users/ericdouglas/Documents/VirtualEnvs/djangotest/lib/python2.7/site-packages/django/forms/util'
p959
sg42
g13
(g14
g15
NtRp960
(dp961
g18
I1
sg19
I0
sg20
I47
sg21
I0
sg22
I0
sg23
I24
sg24
I0
sbssg25
S'u~T\xed\xff\xdf\x10\xea\x0b\xc8\x97^y\x03)\x03'
p962
ssS'article_api'
p963
(dp964
g88
(dp965
g8
S'article_api.html'
p966
sg10
S'article/api'
p967
sg12
g13
(g14
g15
NtRp968
(dp969
g18
I1
sg19
I0
sg20
I8
sg21
I0
sg22
I0
sg23
I0
sg24
I0
sbssg94
S'\x0b&\x18\xab\xd6\xd8\x97k\x07\x86\xaa\xe4L\xe9l\x81'
p970
ssS'_Users_ericdouglas_Documents_VirtualEnvs_djangotest_lib_python2_7_site-packages_django_contrib_staticfiles_utils'
p971
(dp972
g6
(dp973
g38
S'_Users_ericdouglas_Documents_VirtualEnvs_djangotest_lib_python2_7_site-packages_django_contrib_staticfiles_utils.html'
p974
sg40
S'/Users/ericdouglas/Documents/VirtualEnvs/djangotest/lib/python2.7/site-packages/django/contrib/staticfiles/utils'
p975
sg42
g13
(g14
g15
NtRp976
(dp977
g18
I1
sg19
I0
sg20
I37
sg21
I0
sg22
I0
sg23
I30
sg24
I0
sbssg25
S'\xb6M\xd2B\xf1\x9e\x87\xba\r|\xc6\xed\x1c\xdb0\x88'
p978
ssS'_Users_ericdouglas_Documents_VirtualEnvs_djangotest_lib_python2_7_site-packages_django_contrib_auth___init__'
p979
(dp980
g6
(dp981
g38
S'_Users_ericdouglas_Documents_VirtualEnvs_djangotest_lib_python2_7_site-packages_django_contrib_auth___init__.html'
p982
sg40
S'/Users/ericdouglas/Documents/VirtualEnvs/djangotest/lib/python2.7/site-packages/django/contrib/auth/__init__'
p983
sg42
g13
(g14
g15
NtRp984
(dp985
g18
I1
sg19
I0
sg20
I86
sg21
I0
sg22
I0
sg23
I61
sg24
I0
sbssg25
S'9\xe3\xdf\x1bO\x9d\xb7\xb0W\xeb\xdb"A\xb6\x972'
p986
ssS'article_models'
p987
(dp988
g6
(dp989
g8
S'article_models.html'
p990
sg10
S'article/models'
p991
sg12
g13
(g14
g15
NtRp992
(dp993
g18
I1
sg19
I0
sg20
I19
sg21
I0
sg22
I0
sg23
I0
sg24
I0
sbssg25
S"\xf4\xc7a;\xaa\x89'\xb6\xab\xbd3\xc4\x17aE\xd0"
p994
ssS'_Users_ericdouglas_Documents_VirtualEnvs_djangotest_lib_python2_7_site-packages_django_views_decorators_cache'
p995
(dp996
g6
(dp997
g38
S'_Users_ericdouglas_Documents_VirtualEnvs_djangotest_lib_python2_7_site-packages_django_views_decorators_cache.html'
p998
sg40
S'/Users/ericdouglas/Documents/VirtualEnvs/djangotest/lib/python2.7/site-packages/django/views/decorators/cache'
p999
sg42
g13
(g14
g15
NtRp1000
(dp1001
g18
I1
sg19
I0
sg20
I27
sg21
I0
sg22
I0
sg23
I18
sg24
I0
sbssg25
S'\x8b\x83\xe0\xbd5]\x8b\xdc\xa3\x02i\xc0\xf4\x95\xbe\xaa'
p1002
ssS'_Users_ericdouglas_Documents_VirtualEnvs_djangotest_lib_python2_7_site-packages_django_utils_dateformat'
p1003
(dp1004
g6
(dp1005
g38
S'_Users_ericdouglas_Documents_VirtualEnvs_djangotest_lib_python2_7_site-packages_django_utils_dateformat.html'
p1006
sg40
S'/Users/ericdouglas/Documents/VirtualEnvs/djangotest/lib/python2.7/site-packages/django/utils/dateformat'
p1007
sg42
g13
(g14
g15
NtRp1008
(dp1009
g18
I1
sg19
I0
sg20
I181
sg21
I0
sg22
I0
sg23
I119
sg24
I0
sbssg25
S'\xf2\xe4\xae\x83\xc8uL]\xa9;@\xf9-\x1e\x9b\xeb'
p1010
ssS'_Users_ericdouglas_Documents_VirtualEnvs_djangotest_lib_python2_7_site-packages_django_core_management_commands___init__'
p1011
(dp1012
g6
(dp1013
g38
S'_Users_ericdouglas_Documents_VirtualEnvs_djangotest_lib_python2_7_site-packages_django_core_management_commands___init__.html'
p1014
sg40
S'/Users/ericdouglas/Documents/VirtualEnvs/djangotest/lib/python2.7/site-packages/django/core/management/commands/__init__'
p1015
sg42
g13
(g14
g15
NtRp1016
(dp1017
g18
I1
sg19
I0
sg20
I0
sg21
I0
sg22
I0
sg23
I0
sg24
I0
sbssg25
S'\xca\xf5\x9f\x7f\x88\xdfa\x831|T\x1d\xbc}\xa5v'
p1018
ssS'_Users_ericdouglas_Documents_VirtualEnvs_djangotest_lib_python2_7_site-packages_django_utils_translation_trans_real'
p1019
(dp1020
g6
(dp1021
g38
S'_Users_ericdouglas_Documents_VirtualEnvs_djangotest_lib_python2_7_site-packages_django_utils_translation_trans_real.html'
p1022
sg40
S'/Users/ericdouglas/Documents/VirtualEnvs/djangotest/lib/python2.7/site-packages/django/utils/translation/trans_real'
p1023
sg42
g13
(g14
g15
NtRp1024
(dp1025
g18
I1
sg19
I0
sg20
I411
sg21
I0
sg22
I0
sg23
I267
sg24
I0
sbssg25
S'w\x15<\xa9Y\xf6C\x8c\xad\xf4G\xca=L@\x9d'
p1026
ssS'_Users_ericdouglas_Documents_VirtualEnvs_djangotest_lib_python2_7_site-packages_django_contrib_staticfiles_finders'
p1027
(dp1028
g6
(dp1029
g38
S'_Users_ericdouglas_Documents_VirtualEnvs_djangotest_lib_python2_7_site-packages_django_contrib_staticfiles_finders.html'
p1030
sg40
S'/Users/ericdouglas/Documents/VirtualEnvs/djangotest/lib/python2.7/site-packages/django/contrib/staticfiles/finders'
p1031
sg42
g13
(g14
g15
NtRp1032
(dp1033
g18
I1
sg19
I0
sg20
I151
sg21
I0
sg22
I0
sg23
I113
sg24
I0
sbssg25
S':}X\xc7:&\xa9\xefJ#gA`|bE'
p1034
ssS'_Users_ericdouglas_Documents_VirtualEnvs_djangotest_lib_python2_7_site-packages_defusedxml___init__'
p1035
(dp1036
g88
(dp1037
g8
S'_Users_ericdouglas_Documents_VirtualEnvs_djangotest_lib_python2_7_site-packages_defusedxml___init__.html'
p1038
sg10
S'/Users/ericdouglas/Documents/VirtualEnvs/djangotest/lib/python2.7/site-packages/defusedxml/__init__'
p1039
sg12
g13
(g14
g15
NtRp1040
(dp1041
g18
I1
sg19
I0
sg20
I20
sg21
I0
sg22
I0
sg23
I15
sg24
I0
sbssg94
S'\x8d\xbcl*\x98L\xf7\xc8ts\xbfR\xbc\xedJd'
p1042
ssS'_Users_ericdouglas_Documents_VirtualEnvs_djangotest_lib_python2_7_site-packages_django_utils_timezone'
p1043
(dp1044
g6
(dp1045
g8
S'_Users_ericdouglas_Documents_VirtualEnvs_djangotest_lib_python2_7_site-packages_django_utils_timezone.html'
p1046
sg10
S'/Users/ericdouglas/Documents/VirtualEnvs/djangotest/lib/python2.7/site-packages/django/utils/timezone'
p1047
sg12
g13
(g14
g15
NtRp1048
(dp1049
g18
I1
sg19
I0
sg20
I124
sg21
I0
sg22
I0
sg23
I70
sg24
I0
sbssg25
S'\xd9\x80K\xa1k\\\xe5S\x99J|N\x0f\x8e\xa3|'
p1050
ssS'_Users_ericdouglas_Documents_VirtualEnvs_djangotest_lib_python2_7_site-packages_dateutil_parser'
p1051
(dp1052
g88
(dp1053
g8
S'_Users_ericdouglas_Documents_VirtualEnvs_djangotest_lib_python2_7_site-packages_dateutil_parser.html'
p1054
sg10
S'/Users/ericdouglas/Documents/VirtualEnvs/djangotest/lib/python2.7/site-packages/dateutil/parser'
p1055
sg12
g13
(g14
g15
NtRp1056
(dp1057
g18
I1
sg19
I0
sg20
I638
sg21
I0
sg22
I0
sg23
I551
sg24
I0
sbssg94
S'\x8f\x15\xb6|\x83\xcf5\xb3\x06\xael{\xdbv|\x85'
p1058
ssS'_Users_ericdouglas_Documents_VirtualEnvs_djangotest_lib_python2_7_site-packages_django_forms_fields'
p1059
(dp1060
g6
(dp1061
g8
S'_Users_ericdouglas_Documents_VirtualEnvs_djangotest_lib_python2_7_site-packages_django_forms_fields.html'
p1062
sg10
S'/Users/ericdouglas/Documents/VirtualEnvs/djangotest/lib/python2.7/site-packages/django/forms/fields'
p1063
sg12
g13
(g14
g15
NtRp1064
(dp1065
g18
I1
sg19
I0
sg20
I642
sg21
I0
sg22
I0
sg23
I425
sg24
I0
sbssg25
S'\xedt&7\x7f\xfc\xc8\xe0s\x90\x9c~(\x0e>X'
p1066
ssS'_Users_ericdouglas_Documents_VirtualEnvs_djangotest_lib_python2_7_site-packages_django_views___init__'
p1067
(dp1068
g6
(dp1069
g38
S'_Users_ericdouglas_Documents_VirtualEnvs_djangotest_lib_python2_7_site-packages_django_views___init__.html'
p1070
sg40
S'/Users/ericdouglas/Documents/VirtualEnvs/djangotest/lib/python2.7/site-packages/django/views/__init__'
p1071
sg42
g13
(g14
g15
NtRp1072
(dp1073
g18
I1
sg19
I0
sg20
I0
sg21
I0
sg22
I0
sg23
I0
sg24
I0
sbssg25
S'\xca\xf5\x9f\x7f\x88\xdfa\x831|T\x1d\xbc}\xa5v'
p1074
ssS'_Users_ericdouglas_Documents_VirtualEnvs_djangotest_lib_python2_7_site-packages_tastypie_serializers'
p1075
(dp1076
g88
(dp1077
g8
S'_Users_ericdouglas_Documents_VirtualEnvs_djangotest_lib_python2_7_site-packages_tastypie_serializers.html'
p1078
sg10
S'/Users/ericdouglas/Documents/VirtualEnvs/djangotest/lib/python2.7/site-packages/tastypie/serializers'
p1079
sg12
g13
(g14
g15
NtRp1080
(dp1081
g18
I1
sg19
I0
sg20
I288
sg21
I0
sg22
I0
sg23
I225
sg24
I0
sbssg94
S'm\xc6f\xd6\n\x84Qd\xb1\x8f\xf53\xd6\xc0\x9b"'
p1082
ssS'_Users_ericdouglas_Documents_VirtualEnvs_djangotest_lib_python2_7_site-packages_django_core_management_sql'
p1083
(dp1084
g6
(dp1085
g38
S'_Users_ericdouglas_Documents_VirtualEnvs_djangotest_lib_python2_7_site-packages_django_core_management_sql.html'
p1086
sg40
S'/Users/ericdouglas/Documents/VirtualEnvs/djangotest/lib/python2.7/site-packages/django/core/management/sql'
p1087
sg42
g13
(g14
g15
NtRp1088
(dp1089
g18
I1
sg19
I0
sg20
I126
sg21
I0
sg22
I0
sg23
I82
sg24
I0
sbssg25
S'Z\x0b\xbe\x89\xce\x0b\x1e]G\r\x12\x95\xeb\x06\xc0g'
p1090
ssS'_Users_ericdouglas_Documents_VirtualEnvs_djangotest_lib_python2_7_site-packages_django_contrib_staticfiles_models'
p1091
(dp1092
g6
(dp1093
g38
S'_Users_ericdouglas_Documents_VirtualEnvs_djangotest_lib_python2_7_site-packages_django_contrib_staticfiles_models.html'
p1094
sg40
S'/Users/ericdouglas/Documents/VirtualEnvs/djangotest/lib/python2.7/site-packages/django/contrib/staticfiles/models'
p1095
sg42
g13
(g14
g15
NtRp1096
(dp1097
g18
I1
sg19
I0
sg20
I0
sg21
I0
sg22
I0
sg23
I0
sg24
I0
sbssg25
S'\xca\xf5\x9f\x7f\x88\xdfa\x831|T\x1d\xbc}\xa5v'
p1098
ssS'_Users_ericdouglas_Documents_VirtualEnvs_djangotest_lib_python2_7_site-packages_django_contrib_auth_hashers'
p1099
(dp1100
g6
(dp1101
g38
S'_Users_ericdouglas_Documents_VirtualEnvs_djangotest_lib_python2_7_site-packages_django_contrib_auth_hashers.html'
p1102
sg40
S'/Users/ericdouglas/Documents/VirtualEnvs/djangotest/lib/python2.7/site-packages/django/contrib/auth/hashers'
p1103
sg42
g13
(g14
g15
NtRp1104
(dp1105
g18
I1
sg19
I0
sg20
I247
sg21
I0
sg22
I0
sg23
I160
sg24
I0
sbssg25
S'\xb3r\x99\xda\x0bx\xd7\xce\xcdT\xa3\x03\xa0\x97?('
p1106
ssS'djangotest1___init__'
p1107
(dp1108
g6
(dp1109
g38
S'djangotest1___init__.html'
p1110
sg40
S'djangotest1/__init__'
p1111
sg42
g13
(g14
g15
NtRp1112
(dp1113
g18
I1
sg19
I0
sg20
I0
sg21
I0
sg22
I0
sg23
I0
sg24
I0
sbssg25
S'\xca\xf5\x9f\x7f\x88\xdfa\x831|T\x1d\xbc}\xa5v'
p1114
ssS'_Users_ericdouglas_Documents_VirtualEnvs_djangotest_lib_python2_7_site-packages_django_core_management_color'
p1115
(dp1116
g6
(dp1117
g38
S'_Users_ericdouglas_Documents_VirtualEnvs_djangotest_lib_python2_7_site-packages_django_core_management_color.html'
p1118
sg40
S'/Users/ericdouglas/Documents/VirtualEnvs/djangotest/lib/python2.7/site-packages/django/core/management/color'
p1119
sg42
g13
(g14
g15
NtRp1120
(dp1121
g18
I1
sg19
I0
sg20
I28
sg21
I0
sg22
I0
sg23
I3
sg24
I0
sbssg25
S"\x97\x1d}\xfa\xe0\xf3\xe1\x86a\x9fF'\xcf(\xb5j"
p1122
ssS'_Users_ericdouglas_Documents_VirtualEnvs_djangotest_lib_python2_7_site-packages_django_core_management___init__'
p1123
(dp1124
g6
(dp1125
g38
S'_Users_ericdouglas_Documents_VirtualEnvs_djangotest_lib_python2_7_site-packages_django_core_management___init__.html'
p1126
sg40
S'/Users/ericdouglas/Documents/VirtualEnvs/djangotest/lib/python2.7/site-packages/django/core/management/__init__'
p1127
sg42
g13
(g14
g15
NtRp1128
(dp1129
g18
I1
sg19
I0
sg20
I185
sg21
I0
sg22
I0
sg23
I78
sg24
I0
sbssg25
S"\xc2\xc9\xc0}\x8dY\xf13\xfa\xf9'\x19\x8aqQ\x92"
p1130
ssS'_Users_ericdouglas_Documents_VirtualEnvs_djangotest_lib_python2_7_site-packages_django_utils_translation___init__'
p1131
(dp1132
g6
(dp1133
g38
S'_Users_ericdouglas_Documents_VirtualEnvs_djangotest_lib_python2_7_site-packages_django_utils_translation___init__.html'
p1134
sg40
S'/Users/ericdouglas/Documents/VirtualEnvs/djangotest/lib/python2.7/site-packages/django/utils/translation/__init__'
p1135
sg42
g13
(g14
g15
NtRp1136
(dp1137
g18
I1
sg19
I0
sg20
I110
sg21
I0
sg22
I0
sg23
I48
sg24
I0
sbssg25
S'\xe3\xcd6\x18\x99[O\x11\xb3S\xde\x91\xdd:\xcbx'
p1138
ssS'_Users_ericdouglas_Documents_VirtualEnvs_djangotest_lib_python2_7_site-packages_django_contrib_contenttypes_models'
p1139
(dp1140
g6
(dp1141
g38
S'_Users_ericdouglas_Documents_VirtualEnvs_djangotest_lib_python2_7_site-packages_django_contrib_contenttypes_models.html'
p1142
sg40
S'/Users/ericdouglas/Documents/VirtualEnvs/djangotest/lib/python2.7/site-packages/django/contrib/contenttypes/models'
p1143
sg42
g13
(g14
g15
NtRp1144
(dp1145
g18
I1
sg19
I0
sg20
I96
sg21
I0
sg22
I0
sg23
I49
sg24
I0
sbssg25
S'IBc\x9e`A\xe3\xa9\xa2\xaf\x1d\x94IAR-'
p1146
ssS'_Users_ericdouglas_Documents_VirtualEnvs_djangotest_lib_python2_7_site-packages_tastypie_http'
p1147
(dp1148
g88
(dp1149
g8
S'_Users_ericdouglas_Documents_VirtualEnvs_djangotest_lib_python2_7_site-packages_tastypie_http.html'
p1150
sg10
S'/Users/ericdouglas/Documents/VirtualEnvs/djangotest/lib/python2.7/site-packages/tastypie/http'
p1151
sg12
g13
(g14
g15
NtRp1152
(dp1153
g18
I1
sg19
I0
sg20
I40
sg21
I0
sg22
I0
sg23
I3
sg24
I0
sbssg94
S'@\xee\xc6\xb2\xeb\xed@\x9e\\X\xb0\x94\xc5\xd2S2'
p1154
ssS'_Users_ericdouglas_Documents_VirtualEnvs_djangotest_lib_python2_7_site-packages_tastypie_utils_timezone'
p1155
(dp1156
g88
(dp1157
g8
S'_Users_ericdouglas_Documents_VirtualEnvs_djangotest_lib_python2_7_site-packages_tastypie_utils_timezone.html'
p1158
sg10
S'/Users/ericdouglas/Documents/VirtualEnvs/djangotest/lib/python2.7/site-packages/tastypie/utils/timezone'
p1159
sg12
g13
(g14
g15
NtRp1160
(dp1161
g18
I1
sg19
I0
sg20
I27
sg21
I0
sg22
I0
sg23
I17
sg24
I0
sbssg94
S'\x10\xa8\xc9]\x80.\x92K^\xe0\xa95df\x13^'
p1162
ssS'_Users_ericdouglas_Documents_VirtualEnvs_djangotest_lib_python2_7_site-packages_django_db_models_sql_expressions'
p1163
(dp1164
g6
(dp1165
g38
S'_Users_ericdouglas_Documents_VirtualEnvs_djangotest_lib_python2_7_site-packages_django_db_models_sql_expressions.html'
p1166
sg40
S'/Users/ericdouglas/Documents/VirtualEnvs/djangotest/lib/python2.7/site-packages/django/db/models/sql/expressions'
p1167
sg42
g13
(g14
g15
NtRp1168
(dp1169
g18
I1
sg19
I0
sg20
I82
sg21
I0
sg22
I0
sg23
I67
sg24
I0
sbssg25
S'4R\xc3\x9eA~\x95}\xe8\x1f\x0b)+l\x12_'
p1170
ssS'article_tests'
p1171
(dp1172
g6
(dp1173
g675
S'article_tests.html'
p1174
sg677
S'article/tests'
p1175
sg679
g13
(g14
g15
NtRp1176
(dp1177
g18
I1
sg19
I0
sg20
I34
sg21
I0
sg22
I0
sg23
I3
sg24
I0
sbssg25
S'\x00\xd1\x85\xf1\xd79\xdd\xddT\xe1\xe9iny\xbb~'
p1178
ssS'_Users_ericdouglas_Documents_VirtualEnvs_djangotest_lib_python2_7_site-packages_django_templatetags___init__'
p1179
(dp1180
g6
(dp1181
g38
S'_Users_ericdouglas_Documents_VirtualEnvs_djangotest_lib_python2_7_site-packages_django_templatetags___init__.html'
p1182
sg40
S'/Users/ericdouglas/Documents/VirtualEnvs/djangotest/lib/python2.7/site-packages/django/templatetags/__init__'
p1183
sg42
g13
(g14
g15
NtRp1184
(dp1185
g18
I1
sg19
I0
sg20
I0
sg21
I0
sg22
I0
sg23
I0
sg24
I0
sbssg25
S'\xca\xf5\x9f\x7f\x88\xdfa\x831|T\x1d\xbc}\xa5v'
p1186
ssS'_Users_ericdouglas_Documents_VirtualEnvs_djangotest_lib_python2_7_site-packages_django_utils_encoding'
p1187
(dp1188
g6
(dp1189
g8
S'_Users_ericdouglas_Documents_VirtualEnvs_djangotest_lib_python2_7_site-packages_django_utils_encoding.html'
p1190
sg10
S'/Users/ericdouglas/Documents/VirtualEnvs/djangotest/lib/python2.7/site-packages/django/utils/encoding'
p1191
sg12
g13
(g14
g15
NtRp1192
(dp1193
g18
I1
sg19
I0
sg20
I108
sg21
I0
sg22
I0
sg23
I38
sg24
I0
sbssg25
S'\xb8\xf3\xcay\xb7\x03\xbb\x92A"j\xb6\x08\x15AJ'
p1194
ssS'_Users_ericdouglas_Documents_VirtualEnvs_djangotest_lib_python2_7_site-packages_django_utils_cache'
p1195
(dp1196
g6
(dp1197
g8
S'_Users_ericdouglas_Documents_VirtualEnvs_djangotest_lib_python2_7_site-packages_django_utils_cache.html'
p1198
sg10
S'/Users/ericdouglas/Documents/VirtualEnvs/djangotest/lib/python2.7/site-packages/django/utils/cache'
p1199
sg12
g13
(g14
g15
NtRp1200
(dp1201
g18
I1
sg19
I0
sg20
I133
sg21
I0
sg22
I0
sg23
I103
sg24
I0
sbssg25
S'g\xef\xbf\xf1\xe16\x98\x0eYI\x13\x14\x96\xd5r\x02'
p1202
ssS'_Users_ericdouglas_Documents_VirtualEnvs_djangotest_lib_python2_7_site-packages_django_contrib_admin_filters'
p1203
(dp1204
g6
(dp1205
g38
S'_Users_ericdouglas_Documents_VirtualEnvs_djangotest_lib_python2_7_site-packages_django_contrib_admin_filters.html'
p1206
sg40
S'/Users/ericdouglas/Documents/VirtualEnvs/djangotest/lib/python2.7/site-packages/django/contrib/admin/filters'
p1207
sg42
g13
(g14
g15
NtRp1208
(dp1209
g18
I1
sg19
I0
sg20
I188
sg21
I0
sg22
I0
sg23
I127
sg24
I0
sbssg25
S'$\x87%5\x9d\x94~\x14\x8d\x8f\x0f+n\xc4h\xe2'
p1210
ssS'_Users_ericdouglas_Documents_VirtualEnvs_djangotest_lib_python2_7_site-packages_defusedxml_common'
p1211
(dp1212
g88
(dp1213
g8
S'_Users_ericdouglas_Documents_VirtualEnvs_djangotest_lib_python2_7_site-packages_defusedxml_common.html'
p1214
sg10
S'/Users/ericdouglas/Documents/VirtualEnvs/djangotest/lib/python2.7/site-packages/defusedxml/common'
p1215
sg12
g13
(g14
g15
NtRp1216
(dp1217
g18
I1
sg19
I0
sg20
I94
sg21
I0
sg22
I0
sg23
I74
sg24
I0
sbssg94
S':\xb0\x96h\x19J\xf6|\x01Xj\x9e\xca\x0e33'
p1218
ssS'_Users_ericdouglas_Documents_VirtualEnvs_djangotest_lib_python2_7_site-packages_tastypie_authentication'
p1219
(dp1220
g88
(dp1221
g8
S'_Users_ericdouglas_Documents_VirtualEnvs_djangotest_lib_python2_7_site-packages_tastypie_authentication.html'
p1222
sg10
S'/Users/ericdouglas/Documents/VirtualEnvs/djangotest/lib/python2.7/site-packages/tastypie/authentication'
p1223
sg12
g13
(g14
g15
NtRp1224
(dp1225
g18
I1
sg19
I0
sg20
I248
sg21
I0
sg22
I0
sg23
I184
sg24
I0
sbssg94
S'\x1a\xbc\xfe\x8e\xb9\x07\xf0\xe8\xec\xc8\xf8\xaf\x0c\xcd^q'
p1226
ssS'_Users_ericdouglas_Documents_VirtualEnvs_djangotest_lib_python2_7_site-packages_dateutil___init__'
p1227
(dp1228
g88
(dp1229
g8
S'_Users_ericdouglas_Documents_VirtualEnvs_djangotest_lib_python2_7_site-packages_dateutil___init__.html'
p1230
sg10
S'/Users/ericdouglas/Documents/VirtualEnvs/djangotest/lib/python2.7/site-packages/dateutil/__init__'
p1231
sg12
g13
(g14
g15
NtRp1232
(dp1233
g18
I1
sg19
I0
sg20
I4
sg21
I0
sg22
I0
sg23
I0
sg24
I0
sbssg94
S'*\x06\xa9[\xb6-\xf4\xc1\xd2\x8enrV\xd5\x95a'
p1234
ssS'_Users_ericdouglas_Documents_VirtualEnvs_djangotest_lib_python2_7_site-packages_django_contrib_auth_admin'
p1235
(dp1236
g88
(dp1237
g8
S'_Users_ericdouglas_Documents_VirtualEnvs_djangotest_lib_python2_7_site-packages_django_contrib_auth_admin.html'
p1238
sg10
S'/Users/ericdouglas/Documents/VirtualEnvs/djangotest/lib/python2.7/site-packages/django/contrib/auth/admin'
p1239
sg12
g13
(g14
g15
NtRp1240
(dp1241
g18
I1
sg19
I0
sg20
I96
sg21
I0
sg22
I0
sg23
I45
sg24
I0
sbssg94
S'xSl\xc0Uz5M>\x89\xe2k\x14\xa5\x9a\xfc'
p1242
ssS'_Users_ericdouglas_Documents_VirtualEnvs_djangotest_lib_python2_7_site-packages_django_contrib_admin___init__'
p1243
(dp1244
g6
(dp1245
g8
S'_Users_ericdouglas_Documents_VirtualEnvs_djangotest_lib_python2_7_site-packages_django_contrib_admin___init__.html'
p1246
sg10
S'/Users/ericdouglas/Documents/VirtualEnvs/djangotest/lib/python2.7/site-packages/django/contrib/admin/__init__'
p1247
sg12
g13
(g14
g15
NtRp1248
(dp1249
g18
I1
sg19
I0
sg20
I19
sg21
I0
sg22
I0
sg23
I1
sg24
I0
sbssg25
S'T^\x81\x03\x81O\xc0\xf0:\x19\xc57\xed*F\xd8'
p1250
ssS'djangotest1_forms'
p1251
(dp1252
g88
(dp1253
g8
S'djangotest1_forms.html'
p1254
sg10
S'djangotest1/forms'
p1255
sg12
g13
(g14
g15
NtRp1256
(dp1257
g18
I1
sg19
I0
sg20
I14
sg21
I0
sg22
I0
sg23
I5
sg24
I0
sbssg94
S'\xd5\x8cO\xfe\xe9!g\x86\x00M\x9e\x98\xbb\xd2s\xcf'
p1258
ssS'_Users_ericdouglas_Documents_VirtualEnvs_djangotest_lib_python2_7_site-packages_django_db_backends_sqlite3_introspection'
p1259
(dp1260
g6
(dp1261
g38
S'_Users_ericdouglas_Documents_VirtualEnvs_djangotest_lib_python2_7_site-packages_django_db_backends_sqlite3_introspection.html'
p1262
sg40
S'/Users/ericdouglas/Documents/VirtualEnvs/djangotest/lib/python2.7/site-packages/django/db/backends/sqlite3/introspection'
p1263
sg42
g13
(g14
g15
NtRp1264
(dp1265
g18
I1
sg19
I0
sg20
I92
sg21
I0
sg22
I0
sg23
I74
sg24
I0
sbssg25
S'\xd5\xdd\xe6?s\xa3\x87\x96\xd2\x9bg\xa4\xbb\xb3)\x8b'
p1266
ssS'_Users_ericdouglas_Documents_VirtualEnvs_djangotest_lib_python2_7_site-packages_django_core_handlers___init__'
p1267
(dp1268
g6
(dp1269
g38
S'_Users_ericdouglas_Documents_VirtualEnvs_djangotest_lib_python2_7_site-packages_django_core_handlers___init__.html'
p1270
sg40
S'/Users/ericdouglas/Documents/VirtualEnvs/djangotest/lib/python2.7/site-packages/django/core/handlers/__init__'
p1271
sg42
g13
(g14
g15
NtRp1272
(dp1273
g18
I1
sg19
I0
sg20
I0
sg21
I0
sg22
I0
sg23
I0
sg24
I0
sbssg25
S'\xca\xf5\x9f\x7f\x88\xdfa\x831|T\x1d\xbc}\xa5v'
p1274
ssS'manage'
p1275
(dp1276
g6
(dp1277
g38
S'manage.html'
p1278
sg40
g1275
sg42
g13
(g14
g15
NtRp1279
(dp1280
g18
I1
sg19
I0
sg20
I6
sg21
I0
sg22
I0
sg23
I0
sg24
I0
sbssg25
S'\xfcA\xa9\x0e\x91\xa5\xc6\xff\t\xd8\x11\xe6\xab\xad\x891'
p1281
ssS'_Users_ericdouglas_Documents_VirtualEnvs_djangotest_lib_python2_7_site-packages_django_contrib_messages_storage_base'
p1282
(dp1283
g88
(dp1284
g8
S'_Users_ericdouglas_Documents_VirtualEnvs_djangotest_lib_python2_7_site-packages_django_contrib_messages_storage_base.html'
p1285
sg10
S'/Users/ericdouglas/Documents/VirtualEnvs/djangotest/lib/python2.7/site-packages/django/contrib/messages/storage/base'
p1286
sg12
g13
(g14
g15
NtRp1287
(dp1288
g18
I1
sg19
I0
sg20
I83
sg21
I0
sg22
I0
sg23
I47
sg24
I0
sbssg94
S']1W{\x12\x91G\xc0\xd0\xe8P\xb8\x9b\xcb\nM'
p1289
ssS'_Users_ericdouglas_Documents_VirtualEnvs_djangotest_lib_python2_7_site-packages_django_db_backends_util'
p1290
(dp1291
g6
(dp1292
g38
S'_Users_ericdouglas_Documents_VirtualEnvs_djangotest_lib_python2_7_site-packages_django_db_backends_util.html'
p1293
sg40
S'/Users/ericdouglas/Documents/VirtualEnvs/djangotest/lib/python2.7/site-packages/django/db/backends/util'
p1294
sg42
g13
(g14
g15
NtRp1295
(dp1296
g18
I1
sg19
I0
sg20
I110
sg21
I0
sg22
I0
sg23
I68
sg24
I0
sbssg25
S'&@\x86\xcf2\xa6\xa7\xcc\xb7Z\xcf\x05\xdc\x19[\x93'
p1297
ssS'_Users_ericdouglas_Documents_VirtualEnvs_djangotest_lib_python2_7_site-packages_django_dispatch___init__'
p1298
(dp1299
g6
(dp1300
g38
S'_Users_ericdouglas_Documents_VirtualEnvs_djangotest_lib_python2_7_site-packages_django_dispatch___init__.html'
p1301
sg40
S'/Users/ericdouglas/Documents/VirtualEnvs/djangotest/lib/python2.7/site-packages/django/dispatch/__init__'
p1302
sg42
g13
(g14
g15
NtRp1303
(dp1304
g18
I1
sg19
I0
sg20
I1
sg21
I0
sg22
I0
sg23
I0
sg24
I0
sbssg25
S'\x0c\x08\x7f\xbb\x1cX\xc3a\xeb(\xac\xfd\x85h<\x9f'
p1305
ssS'_Users_ericdouglas_Documents_VirtualEnvs_djangotest_lib_python2_7_site-packages_tastypie_utils_formatting'
p1306
(dp1307
g88
(dp1308
g8
S'_Users_ericdouglas_Documents_VirtualEnvs_djangotest_lib_python2_7_site-packages_tastypie_utils_formatting.html'
p1309
sg10
S'/Users/ericdouglas/Documents/VirtualEnvs/djangotest/lib/python2.7/site-packages/tastypie/utils/formatting'
p1310
sg12
g13
(g14
g15
NtRp1311
(dp1312
g18
I1
sg19
I0
sg20
I19
sg21
I0
sg22
I0
sg23
I8
sg24
I0
sbssg94
S'?\xdb\x0b{(\x1fG]^x\xa8\xb6\x06\xe0\x04\x0c'
p1313
ssS'_Users_ericdouglas_Documents_VirtualEnvs_djangotest_lib_python2_7_site-packages_django_contrib_sessions_models'
p1314
(dp1315
g6
(dp1316
g38
S'_Users_ericdouglas_Documents_VirtualEnvs_djangotest_lib_python2_7_site-packages_django_contrib_sessions_models.html'
p1317
sg40
S'/Users/ericdouglas/Documents/VirtualEnvs/djangotest/lib/python2.7/site-packages/django/contrib/sessions/models'
p1318
sg42
g13
(g14
g15
NtRp1319
(dp1320
g18
I1
sg19
I0
sg20
I23
sg21
I0
sg22
I0
sg23
I7
sg24
I0
sbssg25
S'\xc4\x88\x1f\xbd1SuJ!\xba\x0c\x17\x01d\xf9\x0e'
p1321
ssS'_Users_ericdouglas_Documents_VirtualEnvs_djangotest_lib_python2_7_site-packages_django_middleware___init__'
p1322
(dp1323
g6
(dp1324
g38
S'_Users_ericdouglas_Documents_VirtualEnvs_djangotest_lib_python2_7_site-packages_django_middleware___init__.html'
p1325
sg40
S'/Users/ericdouglas/Documents/VirtualEnvs/djangotest/lib/python2.7/site-packages/django/middleware/__init__'
p1326
sg42
g13
(g14
g15
NtRp1327
(dp1328
g18
I1
sg19
I0
sg20
I0
sg21
I0
sg22
I0
sg23
I0
sg24
I0
sbssg25
S'\xca\xf5\x9f\x7f\x88\xdfa\x831|T\x1d\xbc}\xa5v'
p1329
ssS'_Users_ericdouglas_Documents_VirtualEnvs_djangotest_lib_python2_7_site-packages_django_db_models_sql_compiler'
p1330
(dp1331
g6
(dp1332
g8
S'_Users_ericdouglas_Documents_VirtualEnvs_djangotest_lib_python2_7_site-packages_django_db_models_sql_compiler.html'
p1333
sg10
S'/Users/ericdouglas/Documents/VirtualEnvs/djangotest/lib/python2.7/site-packages/django/db/models/sql/compiler'
p1334
sg12
g13
(g14
g15
NtRp1335
(dp1336
g18
I1
sg19
I0
sg20
I679
sg21
I0
sg22
I0
sg23
I367
sg24
I0
sbssg25
S'\xa7\xf3\x97s\xd4HJY\x8b\x84\xdc\x11\x1b\xd5\xc3\n'
p1337
ssS'_Users_ericdouglas_Documents_VirtualEnvs_djangotest_lib_python2_7_site-packages_django_core_cache_backends_locmem'
p1338
(dp1339
g6
(dp1340
g38
S'_Users_ericdouglas_Documents_VirtualEnvs_djangotest_lib_python2_7_site-packages_django_core_cache_backends_locmem.html'
p1341
sg40
S'/Users/ericdouglas/Documents/VirtualEnvs/djangotest/lib/python2.7/site-packages/django/core/cache/backends/locmem'
p1342
sg42
g13
(g14
g15
NtRp1343
(dp1344
g18
I1
sg19
I0
sg20
I118
sg21
I0
sg22
I0
sg23
I92
sg24
I0
sbssg25
S'\x10\xd8\x84L\xcf\xf7~\xb6s\xd6P@cB\xab1'
p1345
ssS'_Users_ericdouglas_Documents_VirtualEnvs_djangotest_lib_python2_7_site-packages_django_core_management_base'
p1346
(dp1347
g6
(dp1348
g38
S'_Users_ericdouglas_Documents_VirtualEnvs_djangotest_lib_python2_7_site-packages_django_core_management_base.html'
p1349
sg40
S'/Users/ericdouglas/Documents/VirtualEnvs/djangotest/lib/python2.7/site-packages/django/core/management/base'
p1350
sg42
g13
(g14
g15
NtRp1351
(dp1352
g18
I1
sg19
I0
sg20
I144
sg21
I0
sg22
I0
sg23
I52
sg24
I0
sbssg25
S'o\xc8\xd0\x80zr\x9f\xf12\xafO\x8b\xa6\xe5=?'
p1353
ssS'_Users_ericdouglas_Documents_VirtualEnvs_djangotest_lib_python2_7_site-packages_django_db_models_sql_where'
p1354
(dp1355
g6
(dp1356
g38
S'_Users_ericdouglas_Documents_VirtualEnvs_djangotest_lib_python2_7_site-packages_django_db_models_sql_where.html'
p1357
sg40
S'/Users/ericdouglas/Documents/VirtualEnvs/djangotest/lib/python2.7/site-packages/django/db/models/sql/where'
p1358
sg42
g13
(g14
g15
NtRp1359
(dp1360
g18
I1
sg19
I0
sg20
I230
sg21
I0
sg22
I0
sg23
I104
sg24
I0
sbssg25
S'%\x0ck\x94\x0b\xbaK\x93QMO\xa1\x9f0\xb3T'
p1361
ssS'_Users_ericdouglas_Documents_VirtualEnvs_djangotest_lib_python2_7_site-packages_django_contrib_staticfiles_views'
p1362
(dp1363
g6
(dp1364
g38
S'_Users_ericdouglas_Documents_VirtualEnvs_djangotest_lib_python2_7_site-packages_django_contrib_staticfiles_views.html'
p1365
sg40
S'/Users/ericdouglas/Documents/VirtualEnvs/djangotest/lib/python2.7/site-packages/django/contrib/staticfiles/views'
p1366
sg42
g13
(g14
g15
NtRp1367
(dp1368
g18
I1
sg19
I0
sg20
I19
sg21
I0
sg22
I0
sg23
I10
sg24
I0
sbssg25
S"\xb9\xf1o~'!\xf5\xc4Y\xa1\x16\xb7\x84]\x16\x9e"
p1369
ssS'_Users_ericdouglas_Documents_VirtualEnvs_djangotest_lib_python2_7_site-packages_django_views_generic___init__'
p1370
(dp1371
g88
(dp1372
g8
S'_Users_ericdouglas_Documents_VirtualEnvs_djangotest_lib_python2_7_site-packages_django_views_generic___init__.html'
p1373
sg10
S'/Users/ericdouglas/Documents/VirtualEnvs/djangotest/lib/python2.7/site-packages/django/views/generic/__init__'
p1374
sg12
g13
(g14
g15
NtRp1375
(dp1376
g18
I1
sg19
I0
sg20
I7
sg21
I0
sg22
I0
sg23
I0
sg24
I0
sbssg94
S'<\xa5n\x11x\xad\xb8P\x12\x05\xb3\xd7N8\xae\xa0'
p1377
ssS'_Users_ericdouglas_Documents_VirtualEnvs_djangotest_lib_python2_7_site-packages_django_core_files_uploadhandler'
p1378
(dp1379
g6
(dp1380
g38
S'_Users_ericdouglas_Documents_VirtualEnvs_djangotest_lib_python2_7_site-packages_django_core_files_uploadhandler.html'
p1381
sg40
S'/Users/ericdouglas/Documents/VirtualEnvs/djangotest/lib/python2.7/site-packages/django/core/files/uploadhandler'
p1382
sg42
g13
(g14
g15
NtRp1383
(dp1384
g18
I1
sg19
I0
sg20
I76
sg21
I0
sg22
I0
sg23
I40
sg24
I0
sbssg25
S'\x1ah\xd0\xcd\xde\x14b\xf9\x81H\xf6h\xc0\x8d\x94\xe3'
p1385
ssS'_Users_ericdouglas_Documents_VirtualEnvs_djangotest_lib_python2_7_site-packages_django_core_serializers_python'
p1386
(dp1387
g6
(dp1388
g38
S'_Users_ericdouglas_Documents_VirtualEnvs_djangotest_lib_python2_7_site-packages_django_core_serializers_python.html'
p1389
sg40
S'/Users/ericdouglas/Documents/VirtualEnvs/djangotest/lib/python2.7/site-packages/django/core/serializers/python'
p1390
sg42
g13
(g14
g15
NtRp1391
(dp1392
g18
I1
sg19
I0
sg20
I86
sg21
I0
sg22
I0
sg23
I67
sg24
I0
sbssg25
S'\xfd%{\xe2\xde--\x11H\xe0\x1d\x03C\xbe\x16\x0f'
p1393
ssS'_Users_ericdouglas_Documents_VirtualEnvs_djangotest_lib_python2_7_site-packages_django_core_serializers___init__'
p1394
(dp1395
g6
(dp1396
g38
S'_Users_ericdouglas_Documents_VirtualEnvs_djangotest_lib_python2_7_site-packages_django_core_serializers___init__.html'
p1397
sg40
S'/Users/ericdouglas/Documents/VirtualEnvs/djangotest/lib/python2.7/site-packages/django/core/serializers/__init__'
p1398
sg42
g13
(g14
g15
NtRp1399
(dp1400
g18
I1
sg19
I0
sg20
I64
sg21
I0
sg22
I0
sg23
I28
sg24
I0
sbssg25
S'\xec\x88\xe1\xca9\x8e8\xaf\xa6hyQ\x15\x9d~o'
p1401
ssS'_Users_ericdouglas_Documents_VirtualEnvs_djangotest_lib_python2_7_site-packages_django_contrib_staticfiles_templatetags___init__'
p1402
(dp1403
g6
(dp1404
g38
S'_Users_ericdouglas_Documents_VirtualEnvs_djangotest_lib_python2_7_site-packages_django_contrib_staticfiles_templatetags___init__.html'
p1405
sg40
S'/Users/ericdouglas/Documents/VirtualEnvs/djangotest/lib/python2.7/site-packages/django/contrib/staticfiles/templatetags/__init__'
p1406
sg42
g13
(g14
g15
NtRp1407
(dp1408
g18
I1
sg19
I0
sg20
I0
sg21
I0
sg22
I0
sg23
I0
sg24
I0
sbssg25
S'\xca\xf5\x9f\x7f\x88\xdfa\x831|T\x1d\xbc}\xa5v'
p1409
ssS'_Users_ericdouglas_Documents_VirtualEnvs_djangotest_lib_python2_7_site-packages_django_shortcuts___init__'
p1410
(dp1411
g6
(dp1412
g8
S'_Users_ericdouglas_Documents_VirtualEnvs_djangotest_lib_python2_7_site-packages_django_shortcuts___init__.html'
p1413
sg10
S'/Users/ericdouglas/Documents/VirtualEnvs/djangotest/lib/python2.7/site-packages/django/shortcuts/__init__'
p1414
sg12
g13
(g14
g15
NtRp1415
(dp1416
g18
I1
sg19
I0
sg20
I63
sg21
I0
sg22
I0
sg23
I44
sg24
I0
sbssg25
S'\x8b\xc0Z\xa1\xc4p\xb5\xf0dQQ\x87\xaaOC\xaf'
p1417
ssS'_Users_ericdouglas_Documents_VirtualEnvs_djangotest_lib_python2_7_site-packages_django_contrib_contenttypes_views'
p1418
(dp1419
g6
(dp1420
g38
S'_Users_ericdouglas_Documents_VirtualEnvs_djangotest_lib_python2_7_site-packages_django_contrib_contenttypes_views.html'
p1421
sg40
S'/Users/ericdouglas/Documents/VirtualEnvs/djangotest/lib/python2.7/site-packages/django/contrib/contenttypes/views'
p1422
sg42
g13
(g14
g15
NtRp1423
(dp1424
g18
I1
sg19
I0
sg20
I50
sg21
I0
sg22
I0
sg23
I43
sg24
I0
sbssg25
S'\xe4\x81W%\xa6\xc9,\xa9jV%,\xc5\x89\x0c\x17'
p1425
ssS'_Users_ericdouglas_Documents_VirtualEnvs_djangotest_lib_python2_7_site-packages_django_contrib_contenttypes___init__'
p1426
(dp1427
g6
(dp1428
g38
S'_Users_ericdouglas_Documents_VirtualEnvs_djangotest_lib_python2_7_site-packages_django_contrib_contenttypes___init__.html'
p1429
sg40
S'/Users/ericdouglas/Documents/VirtualEnvs/djangotest/lib/python2.7/site-packages/django/contrib/contenttypes/__init__'
p1430
sg42
g13
(g14
g15
NtRp1431
(dp1432
g18
I1
sg19
I0
sg20
I0
sg21
I0
sg22
I0
sg23
I0
sg24
I0
sbssg25
S'\xca\xf5\x9f\x7f\x88\xdfa\x831|T\x1d\xbc}\xa5v'
p1433
ssS'_Users_ericdouglas_Documents_VirtualEnvs_djangotest_lib_python2_7_site-packages_django_test_utils'
p1434
(dp1435
g6
(dp1436
g8
S'_Users_ericdouglas_Documents_VirtualEnvs_djangotest_lib_python2_7_site-packages_django_test_utils.html'
p1437
sg10
S'/Users/ericdouglas/Documents/VirtualEnvs/djangotest/lib/python2.7/site-packages/django/test/utils'
p1438
sg12
g13
(g14
g15
NtRp1439
(dp1440
g18
I1
sg19
I0
sg20
I265
sg21
I0
sg22
I0
sg23
I170
sg24
I0
sbssg25
S'F\x87j\xd2\x9e\xb8\xa6\x91\xe3\x87F|\xb3=_\x01'
p1441
ssS'_Users_ericdouglas_Documents_VirtualEnvs_djangotest_lib_python2_7_site-packages_tastypie_throttle'
p1442
(dp1443
g88
(dp1444
g8
S'_Users_ericdouglas_Documents_VirtualEnvs_djangotest_lib_python2_7_site-packages_tastypie_throttle.html'
p1445
sg10
S'/Users/ericdouglas/Documents/VirtualEnvs/djangotest/lib/python2.7/site-packages/tastypie/throttle'
p1446
sg12
g13
(g14
g15
NtRp1447
(dp1448
g18
I1
sg19
I0
sg20
I40
sg21
I0
sg22
I0
sg23
I22
sg24
I0
sbssg94
S'\xd6\xe9\xdd\x13x)?\xa4\x9c\xba!\xb1\x82<\x88n'
p1449
ssS'_Users_ericdouglas_Documents_VirtualEnvs_djangotest_lib_python2_7_site-packages_django_core_serializers_base'
p1450
(dp1451
g6
(dp1452
g38
S'_Users_ericdouglas_Documents_VirtualEnvs_djangotest_lib_python2_7_site-packages_django_core_serializers_base.html'
p1453
sg40
S'/Users/ericdouglas/Documents/VirtualEnvs/djangotest/lib/python2.7/site-packages/django/core/serializers/base'
p1454
sg42
g13
(g14
g15
NtRp1455
(dp1456
g18
I1
sg19
I0
sg20
I76
sg21
I0
sg22
I0
sg23
I49
sg24
I0
sbssg25
S'\x84CF\xb2\xa8\x0et\x81]\x8c+\x81* X\x08'
p1457
ssS'_Users_ericdouglas_Documents_VirtualEnvs_djangotest_lib_python2_7_site-packages_django_views_decorators_csrf'
p1458
(dp1459
g6
(dp1460
g8
S'_Users_ericdouglas_Documents_VirtualEnvs_djangotest_lib_python2_7_site-packages_django_views_decorators_csrf.html'
p1461
sg10
S'/Users/ericdouglas/Documents/VirtualEnvs/djangotest/lib/python2.7/site-packages/django/views/decorators/csrf'
p1462
sg12
g13
(g14
g15
NtRp1463
(dp1464
g18
I1
sg19
I0
sg20
I27
sg21
I0
sg22
I0
sg23
I6
sg24
I0
sbssg25
S'G\x03/\x82Q8\xb8\xcc\xf2\xc0\xb8\xcb\x97\xaa\xb6\x07'
p1465
ssS'_Users_ericdouglas_Documents_VirtualEnvs_djangotest_lib_python2_7_site-packages_django_test_testcases'
p1466
(dp1467
g6
(dp1468
g38
S'_Users_ericdouglas_Documents_VirtualEnvs_djangotest_lib_python2_7_site-packages_django_test_testcases.html'
p1469
sg40
S'/Users/ericdouglas/Documents/VirtualEnvs/djangotest/lib/python2.7/site-packages/django/test/testcases'
p1470
sg42
g13
(g14
g15
NtRp1471
(dp1472
g18
I1
sg19
I0
sg20
I609
sg21
I0
sg22
I0
sg23
I425
sg24
I0
sbssg25
S'-=\xff\x8e\x14ONQ^v\x95\xcdn\x9c\x90\xaa'
p1473
ssS'_Users_ericdouglas_Documents_VirtualEnvs_djangotest_lib_python2_7_site-packages_django_db_models_options'
p1474
(dp1475
g6
(dp1476
g38
S'_Users_ericdouglas_Documents_VirtualEnvs_djangotest_lib_python2_7_site-packages_django_db_models_options.html'
p1477
sg40
S'/Users/ericdouglas/Documents/VirtualEnvs/djangotest/lib/python2.7/site-packages/django/db/models/options'
p1478
sg42
g13
(g14
g15
NtRp1479
(dp1480
g18
I1
sg19
I0
sg20
I348
sg21
I0
sg22
I0
sg23
I97
sg24
I0
sbssg25
S'\x8d&\x8fM\xb3s\xe2\x9f\x17\x14S\x8e\x06\\Z|'
p1481
ssS'djangotest1_settings'
p1482
(dp1483
g6
(dp1484
g38
S'djangotest1_settings.html'
p1485
sg40
S'djangotest1/settings'
p1486
sg42
g13
(g14
g15
NtRp1487
(dp1488
g18
I1
sg19
I0
sg20
I21
sg21
I0
sg22
I0
sg23
I0
sg24
I0
sbssg25
S'I\x87\x8b\xd9\x05\x00NOW]\x10\xb6\x8d}\xda\xf3'
p1489
ssS'_Users_ericdouglas_Documents_VirtualEnvs_djangotest_lib_python2_7_site-packages_django_db_models_loading'
p1490
(dp1491
g6
(dp1492
g38
S'_Users_ericdouglas_Documents_VirtualEnvs_djangotest_lib_python2_7_site-packages_django_db_models_loading.html'
p1493
sg40
S'/Users/ericdouglas/Documents/VirtualEnvs/djangotest/lib/python2.7/site-packages/django/db/models/loading'
p1494
sg42
g13
(g14
g15
NtRp1495
(dp1496
g18
I1
sg19
I0
sg20
I152
sg21
I0
sg22
I0
sg23
I29
sg24
I0
sbssg25
S'i\x8d\xa6\x96i9\xdbZ\x1d\xe2k?Rz\x18c'
p1497
ssS'_Users_ericdouglas_Documents_VirtualEnvs_djangotest_lib_python2_7_site-packages_django_core_handlers_wsgi'
p1498
(dp1499
g6
(dp1500
g8
S'_Users_ericdouglas_Documents_VirtualEnvs_djangotest_lib_python2_7_site-packages_django_core_handlers_wsgi.html'
p1501
sg10
S'/Users/ericdouglas/Documents/VirtualEnvs/djangotest/lib/python2.7/site-packages/django/core/handlers/wsgi'
p1502
sg12
g13
(g14
g15
NtRp1503
(dp1504
g18
I1
sg19
I0
sg20
I154
sg21
I0
sg22
I0
sg23
I77
sg24
I0
sbssg25
S'z\x88\xce\xa6\xd1\xbc& \x0c\xaf\xf9j\x83\xaf;R'
p1505
ssS'_Users_ericdouglas_Documents_VirtualEnvs_djangotest_lib_python2_7_site-packages_django_core_mail___init__'
p1506
(dp1507
g6
(dp1508
g38
S'_Users_ericdouglas_Documents_VirtualEnvs_djangotest_lib_python2_7_site-packages_django_core_mail___init__.html'
p1509
sg40
S'/Users/ericdouglas/Documents/VirtualEnvs/djangotest/lib/python2.7/site-packages/django/core/mail/__init__'
p1510
sg42
g13
(g14
g15
NtRp1511
(dp1512
g18
I1
sg19
I0
sg20
I29
sg21
I0
sg22
I0
sg23
I19
sg24
I0
sbssg25
S'\xa329U/O6F\xe8A+\xba\xb3\x96~\x7f'
p1513
ssS'_Users_ericdouglas_Documents_VirtualEnvs_djangotest_lib_python2_7_site-packages_django_contrib_sessions_exceptions'
p1514
(dp1515
g6
(dp1516
g38
S'_Users_ericdouglas_Documents_VirtualEnvs_djangotest_lib_python2_7_site-packages_django_contrib_sessions_exceptions.html'
p1517
sg40
S'/Users/ericdouglas/Documents/VirtualEnvs/djangotest/lib/python2.7/site-packages/django/contrib/sessions/exceptions'
p1518
sg42
g13
(g14
g15
NtRp1519
(dp1520
g18
I1
sg19
I0
sg20
I5
sg21
I0
sg22
I0
sg23
I0
sg24
I0
sbssg25
S'\x95\x04\x01\x10c\xc83\xdaB\xb8qa\xe6[c\xd8'
p1521
ssS'_Users_ericdouglas_Documents_VirtualEnvs_djangotest_lib_python2_7_site-packages_django_template_response'
p1522
(dp1523
g6
(dp1524
g38
S'_Users_ericdouglas_Documents_VirtualEnvs_djangotest_lib_python2_7_site-packages_django_template_response.html'
p1525
sg40
S'/Users/ericdouglas/Documents/VirtualEnvs/djangotest/lib/python2.7/site-packages/django/template/response'
p1526
sg42
g13
(g14
g15
NtRp1527
(dp1528
g18
I1
sg19
I0
sg20
I72
sg21
I0
sg22
I0
sg23
I50
sg24
I0
sbssg25
S'Y\xbe2#\xdcg\x1e\xa2\xda\x84\xe1\xbf\x15\x9f\xaf\x05'
p1529
ssS'_Users_ericdouglas_Documents_VirtualEnvs_djangotest_lib_python2_7_site-packages_tastypie_constants'
p1530
(dp1531
g88
(dp1532
g8
S'_Users_ericdouglas_Documents_VirtualEnvs_djangotest_lib_python2_7_site-packages_tastypie_constants.html'
p1533
sg10
S'/Users/ericdouglas/Documents/VirtualEnvs/djangotest/lib/python2.7/site-packages/tastypie/constants'
p1534
sg12
g13
(g14
g15
NtRp1535
(dp1536
g18
I1
sg19
I0
sg20
I3
sg21
I0
sg22
I0
sg23
I0
sg24
I0
sbssg94
S'<\xed\xe0bB\x17\x8d*=\x02\xb0\xedx\xbe\x88\x1a'
p1537
ssS'_Users_ericdouglas_Documents_VirtualEnvs_djangotest_lib_python2_7_site-packages_django_utils_dates'
p1538
(dp1539
g6
(dp1540
g38
S'_Users_ericdouglas_Documents_VirtualEnvs_djangotest_lib_python2_7_site-packages_django_utils_dates.html'
p1541
sg40
S'/Users/ericdouglas/Documents/VirtualEnvs/djangotest/lib/python2.7/site-packages/django/utils/dates'
p1542
sg42
g13
(g14
g15
NtRp1543
(dp1544
g18
I1
sg19
I0
sg20
I9
sg21
I0
sg22
I0
sg23
I0
sg24
I0
sbssg25
S'\xaa\xd0\xb6\xf0{\x0b\xfe\xc2\xe5J\xa1\xe1"\xf7\xc28'
p1545
ssS'_Users_ericdouglas_Documents_VirtualEnvs_djangotest_lib_python2_7_site-packages_django_conf_locale_en___init__'
p1546
(dp1547
g6
(dp1548
g38
S'_Users_ericdouglas_Documents_VirtualEnvs_djangotest_lib_python2_7_site-packages_django_conf_locale_en___init__.html'
p1549
sg40
S'/Users/ericdouglas/Documents/VirtualEnvs/djangotest/lib/python2.7/site-packages/django/conf/locale/en/__init__'
p1550
sg42
g13
(g14
g15
NtRp1551
(dp1552
g18
I1
sg19
I0
sg20
I0
sg21
I0
sg22
I0
sg23
I0
sg24
I0
sbssg25
S'\xca\xf5\x9f\x7f\x88\xdfa\x831|T\x1d\xbc}\xa5v'
p1553
ssS'_Users_ericdouglas_Documents_VirtualEnvs_djangotest_lib_python2_7_site-packages_django_core_mail_utils'
p1554
(dp1555
g6
(dp1556
g38
S'_Users_ericdouglas_Documents_VirtualEnvs_djangotest_lib_python2_7_site-packages_django_core_mail_utils.html'
p1557
sg40
S'/Users/ericdouglas/Documents/VirtualEnvs/djangotest/lib/python2.7/site-packages/django/core/mail/utils'
p1558
sg42
g13
(g14
g15
NtRp1559
(dp1560
g18
I1
sg19
I0
sg20
I9
sg21
I0
sg22
I0
sg23
I4
sg24
I0
sbssg25
S'1;F\xfb\xb1\rUh=1\x8b}\x9c3\xc3\xbf'
p1561
ssS'_Users_ericdouglas_Documents_VirtualEnvs_djangotest_lib_python2_7_site-packages_django_views_generic_edit'
p1562
(dp1563
g88
(dp1564
g8
S'_Users_ericdouglas_Documents_VirtualEnvs_djangotest_lib_python2_7_site-packages_django_views_generic_edit.html'
p1565
sg10
S'/Users/ericdouglas/Documents/VirtualEnvs/djangotest/lib/python2.7/site-packages/django/views/generic/edit'
p1566
sg12
g13
(g14
g15
NtRp1567
(dp1568
g18
I1
sg19
I0
sg20
I111
sg21
I0
sg22
I0
sg23
I61
sg24
I0
sbssg94
S'\xe7\x8f3s\xe3[a8\xc67\x18\xbc\xcf\xd3W\xcc'
p1569
ssS'_Users_ericdouglas_Documents_VirtualEnvs_djangotest_lib_python2_7_site-packages_tastypie_compat'
p1570
(dp1571
g88
(dp1572
g8
S'_Users_ericdouglas_Documents_VirtualEnvs_djangotest_lib_python2_7_site-packages_tastypie_compat.html'
p1573
sg10
S'/Users/ericdouglas/Documents/VirtualEnvs/djangotest/lib/python2.7/site-packages/tastypie/compat'
p1574
sg12
g13
(g14
g15
NtRp1575
(dp1576
g18
I1
sg19
I0
sg20
I16
sg21
I0
sg22
I0
sg23
I5
sg24
I0
sbssg94
S'\x9f\\%I3y\x86\xbf\xdb<\x948D\xd6\xc2\xd4'
p1577
ssS'_Users_ericdouglas_Documents_VirtualEnvs_djangotest_lib_python2_7_site-packages_django_db_models___init__'
p1578
(dp1579
g6
(dp1580
g38
S'_Users_ericdouglas_Documents_VirtualEnvs_djangotest_lib_python2_7_site-packages_django_db_models___init__.html'
p1581
sg40
S'/Users/ericdouglas/Documents/VirtualEnvs/djangotest/lib/python2.7/site-packages/django/db/models/__init__'
p1582
sg42
g13
(g14
g15
NtRp1583
(dp1584
g18
I1
sg19
I0
sg20
I20
sg21
I0
sg22
I0
sg23
I5
sg24
I0
sbssg25
S'$\x11\xda\x17=\xa2D\xbd\xbe2M{\xcd\xcb\xe9\xe7'
p1585
ssS'_Users_ericdouglas_Documents_VirtualEnvs_djangotest_lib_python2_7_site-packages_django_contrib_sessions_serializers'
p1586
(dp1587
g88
(dp1588
g8
S'_Users_ericdouglas_Documents_VirtualEnvs_djangotest_lib_python2_7_site-packages_django_contrib_sessions_serializers.html'
p1589
sg10
S'/Users/ericdouglas/Documents/VirtualEnvs/djangotest/lib/python2.7/site-packages/django/contrib/sessions/serializers'
p1590
sg12
g13
(g14
g15
NtRp1591
(dp1592
g18
I1
sg19
I0
sg20
I11
sg21
I0
sg22
I0
sg23
I4
sg24
I0
sbssg94
S'\xd1\r\xe2\x0e_2\xa4;r\xa8z\x90a\xba\xc2\xb4'
p1593
ssS'_Users_ericdouglas_Documents_VirtualEnvs_djangotest_lib_python2_7_site-packages_django_template_loaders_filesystem'
p1594
(dp1595
g88
(dp1596
g8
S'_Users_ericdouglas_Documents_VirtualEnvs_djangotest_lib_python2_7_site-packages_django_template_loaders_filesystem.html'
p1597
sg10
S'/Users/ericdouglas/Documents/VirtualEnvs/djangotest/lib/python2.7/site-packages/django/template/loaders/filesystem'
p1598
sg12
g13
(g14
g15
NtRp1599
(dp1600
g18
I1
sg19
I0
sg20
I29
sg21
I0
sg22
I0
sg23
I6
sg24
I0
sbssg94
S'c\x02\x90W\xdbG;\xbe\x80-\xf5zF\xb0\x89Z'
p1601
ssS'_Users_ericdouglas_Documents_VirtualEnvs_djangotest_lib_python2_7_site-packages_django_middleware_csrf'
p1602
(dp1603
g6
(dp1604
g8
S'_Users_ericdouglas_Documents_VirtualEnvs_djangotest_lib_python2_7_site-packages_django_middleware_csrf.html'
p1605
sg10
S'/Users/ericdouglas/Documents/VirtualEnvs/djangotest/lib/python2.7/site-packages/django/middleware/csrf'
p1606
sg12
g13
(g14
g15
NtRp1607
(dp1608
g18
I1
sg19
I0
sg20
I81
sg21
I0
sg22
I0
sg23
I34
sg24
I0
sbssg25
S'R\xf1\xa6\x95A\xbb\xdd\xb7GK\x84\x9bM\xec\xcc\x93'
p1609
ssS'_Users_ericdouglas_Documents_VirtualEnvs_djangotest_lib_python2_7_site-packages_defusedxml_lxml'
p1610
(dp1611
g88
(dp1612
g8
S'_Users_ericdouglas_Documents_VirtualEnvs_djangotest_lib_python2_7_site-packages_defusedxml_lxml.html'
p1613
sg10
S'/Users/ericdouglas/Documents/VirtualEnvs/djangotest/lib/python2.7/site-packages/defusedxml/lxml'
p1614
sg12
g13
(g14
g15
NtRp1615
(dp1616
g18
I1
sg19
I0
sg20
I87
sg21
I0
sg22
I0
sg23
I55
sg24
I0
sbssg94
S'b\xa6\xc4\xc8S\x80\xcb+Q\x07\xc8b/5\xc5\xb5'
p1617
ssS'_Users_ericdouglas_Documents_VirtualEnvs_djangotest_lib_python2_7_site-packages_lxml__elementpath'
p1618
(dp1619
g88
(dp1620
g8
S'_Users_ericdouglas_Documents_VirtualEnvs_djangotest_lib_python2_7_site-packages_lxml__elementpath.html'
p1621
sg10
S'/Users/ericdouglas/Documents/VirtualEnvs/djangotest/lib/python2.7/site-packages/lxml/_elementpath'
p1622
sg12
g13
(g14
g15
NtRp1623
(dp1624
g18
I1
sg19
I0
sg20
I182
sg21
I0
sg22
I0
sg23
I166
sg24
I0
sbssg94
S'+\xed\xe9\x1b,\xb5n\xad\x84\x99h\xfcFUb\xdc'
p1625
ssS'_Users_ericdouglas_Documents_VirtualEnvs_djangotest_lib_python2_7_site-packages_django_contrib_sessions___init__'
p1626
(dp1627
g6
(dp1628
g38
S'_Users_ericdouglas_Documents_VirtualEnvs_djangotest_lib_python2_7_site-packages_django_contrib_sessions___init__.html'
p1629
sg40
S'/Users/ericdouglas/Documents/VirtualEnvs/djangotest/lib/python2.7/site-packages/django/contrib/sessions/__init__'
p1630
sg42
g13
(g14
g15
NtRp1631
(dp1632
g18
I1
sg19
I0
sg20
I0
sg21
I0
sg22
I0
sg23
I0
sg24
I0
sbssg25
S'\xca\xf5\x9f\x7f\x88\xdfa\x831|T\x1d\xbc}\xa5v'
p1633
ssS'article_urls'
p1634
(dp1635
g88
(dp1636
g8
S'article_urls.html'
p1637
sg10
S'article/urls'
p1638
sg12
g13
(g14
g15
NtRp1639
(dp1640
g18
I1
sg19
I0
sg20
I13
sg21
I0
sg22
I0
sg23
I0
sg24
I0
sbssg94
S'\xaa\x0et\x05\x92\x19\x9c_\xf9\xde\x12<{\x84E\xd8'
p1641
ssS'_Users_ericdouglas_Documents_VirtualEnvs_djangotest_lib_python2_7_site-packages_django_db___init__'
p1642
(dp1643
g6
(dp1644
g8
S'_Users_ericdouglas_Documents_VirtualEnvs_djangotest_lib_python2_7_site-packages_django_db___init__.html'
p1645
sg10
S'/Users/ericdouglas/Documents/VirtualEnvs/djangotest/lib/python2.7/site-packages/django/db/__init__'
p1646
sg12
g13
(g14
g15
NtRp1647
(dp1648
g18
I1
sg19
I0
sg20
I45
sg21
I0
sg22
I0
sg23
I18
sg24
I0
sbssg25
S'\xfb\x83\x8cb\x84aHT\xdd\xe2\xd5\xa7\x89\x9b}8'
p1649
ssS'_Users_ericdouglas_Documents_VirtualEnvs_djangotest_lib_python2_7_site-packages_django_contrib_messages___init__'
p1650
(dp1651
g6
(dp1652
g38
S'_Users_ericdouglas_Documents_VirtualEnvs_djangotest_lib_python2_7_site-packages_django_contrib_messages___init__.html'
p1653
sg40
S'/Users/ericdouglas/Documents/VirtualEnvs/djangotest/lib/python2.7/site-packages/django/contrib/messages/__init__'
p1654
sg42
g13
(g14
g15
NtRp1655
(dp1656
g18
I1
sg19
I0
sg20
I3
sg21
I0
sg22
I0
sg23
I0
sg24
I0
sbssg25
S"\xf4\x03\xf0-\x85\x9aN\xb8x'\xb8C\xe6\xcc\xc7M"
p1657
ssS'_Users_ericdouglas_Documents_VirtualEnvs_djangotest_lib_python2_7_site-packages_django_contrib_staticfiles_storage'
p1658
(dp1659
g6
(dp1660
g38
S'_Users_ericdouglas_Documents_VirtualEnvs_djangotest_lib_python2_7_site-packages_django_contrib_staticfiles_storage.html'
p1661
sg40
S'/Users/ericdouglas/Documents/VirtualEnvs/djangotest/lib/python2.7/site-packages/django/contrib/staticfiles/storage'
p1662
sg42
g13
(g14
g15
NtRp1663
(dp1664
g18
I1
sg19
I0
sg20
I183
sg21
I0
sg22
I0
sg23
I144
sg24
I0
sbssg25
S'\x80,^\xbd\xcf\xc7\xbf\x17x\x84\x89\xf0\xf0\xb8%\x93'
p1665
ssS'_Users_ericdouglas_Documents_VirtualEnvs_djangotest_lib_python2_7_site-packages_django_core_files_uploadedfile'
p1666
(dp1667
g6
(dp1668
g38
S'_Users_ericdouglas_Documents_VirtualEnvs_djangotest_lib_python2_7_site-packages_django_core_files_uploadedfile.html'
p1669
sg40
S'/Users/ericdouglas/Documents/VirtualEnvs/djangotest/lib/python2.7/site-packages/django/core/files/uploadedfile'
p1670
sg42
g13
(g14
g15
NtRp1671
(dp1672
g18
I1
sg19
I0
sg20
I60
sg21
I0
sg22
I0
sg23
I32
sg24
I0
sbssg25
S'Wl\xd0S\xd7\xc1;\x1f\xce\x1dj\xd7\n5\xd9\x80'
p1673
ssS'_Users_ericdouglas_Documents_VirtualEnvs_djangotest_lib_python2_7_site-packages_django_views_generic_base'
p1674
(dp1675
g88
(dp1676
g8
S'_Users_ericdouglas_Documents_VirtualEnvs_djangotest_lib_python2_7_site-packages_django_views_generic_base.html'
p1677
sg10
S'/Users/ericdouglas/Documents/VirtualEnvs/djangotest/lib/python2.7/site-packages/django/views/generic/base'
p1678
sg12
g13
(g14
g15
NtRp1679
(dp1680
g18
I1
sg19
I0
sg20
I105
sg21
I0
sg22
I0
sg23
I59
sg24
I0
sbssg94
S'\x15/\xa5{x\x0e\x89\xd9}\x8a\xfb\xf1f\xba\xa1\x19'
p1681
ssS'_Users_ericdouglas_Documents_VirtualEnvs_djangotest_lib_python2_7_site-packages_tastypie_fields'
p1682
(dp1683
g88
(dp1684
g8
S'_Users_ericdouglas_Documents_VirtualEnvs_djangotest_lib_python2_7_site-packages_tastypie_fields.html'
p1685
sg10
S'/Users/ericdouglas/Documents/VirtualEnvs/djangotest/lib/python2.7/site-packages/tastypie/fields'
p1686
sg12
g13
(g14
g15
NtRp1687
(dp1688
g18
I1
sg19
I0
sg20
I429
sg21
I0
sg22
I0
sg23
I304
sg24
I0
sbssg94
S'\xb8\xba$e|y\x1b~`\xfe`t:\x92\x01L'
p1689
ssS'_Users_ericdouglas_Documents_VirtualEnvs_djangotest_lib_python2_7_site-packages_django_views_generic_detail'
p1690
(dp1691
g88
(dp1692
g8
S'_Users_ericdouglas_Documents_VirtualEnvs_djangotest_lib_python2_7_site-packages_django_views_generic_detail.html'
p1693
sg10
S'/Users/ericdouglas/Documents/VirtualEnvs/djangotest/lib/python2.7/site-packages/django/views/generic/detail'
p1694
sg12
g13
(g14
g15
NtRp1695
(dp1696
g18
I1
sg19
I0
sg20
I77
sg21
I0
sg22
I0
sg23
I52
sg24
I0
sbssg94
S'\x99\x93\xaen\xc8\x90f\x91<;\x06\xd8\xd1\x91\r\xb0'
p1697
ssS'_Users_ericdouglas_Documents_VirtualEnvs_djangotest_lib_python2_7_site-packages_django_db_models_related'
p1698
(dp1699
g6
(dp1700
g38
S'_Users_ericdouglas_Documents_VirtualEnvs_djangotest_lib_python2_7_site-packages_django_db_models_related.html'
p1701
sg40
S'/Users/ericdouglas/Documents/VirtualEnvs/djangotest/lib/python2.7/site-packages/django/db/models/related'
p1702
sg42
g13
(g14
g15
NtRp1703
(dp1704
g18
I1
sg19
I0
sg20
I35
sg21
I0
sg22
I0
sg23
I13
sg24
I0
sbssg25
S'\x91\xa2\xf9\xe3\x11\xf9\x12;\x91?\xdcZ\xa9\x1a\xb0f'
p1705
ssS'article_views'
p1706
(dp1707
g88
(dp1708
g8
S'article_views.html'
p1709
sg10
S'article/views'
p1710
sg12
g13
(g14
g15
NtRp1711
(dp1712
g18
I1
sg19
I0
sg20
I88
sg21
I0
sg22
I0
sg23
I54
sg24
I0
sbssg94
S'#\x83+<\xe8\xbd\x93\x8e\x16\xdb\x80\xdb\x1a9\xbe"'
p1713
ssS'_Users_ericdouglas_Documents_VirtualEnvs_djangotest_lib_python2_7_site-packages_django_template_loaders___init__'
p1714
(dp1715
g6
(dp1716
g38
S'_Users_ericdouglas_Documents_VirtualEnvs_djangotest_lib_python2_7_site-packages_django_template_loaders___init__.html'
p1717
sg40
S'/Users/ericdouglas/Documents/VirtualEnvs/djangotest/lib/python2.7/site-packages/django/template/loaders/__init__'
p1718
sg42
g13
(g14
g15
NtRp1719
(dp1720
g18
I1
sg19
I0
sg20
I0
sg21
I0
sg22
I0
sg23
I0
sg24
I0
sbssg25
S'\xca\xf5\x9f\x7f\x88\xdfa\x831|T\x1d\xbc}\xa5v'
p1721
ssS'_Users_ericdouglas_Documents_VirtualEnvs_djangotest_lib_python2_7_site-packages_django_contrib_auth_models'
p1722
(dp1723
g6
(dp1724
g38
S'_Users_ericdouglas_Documents_VirtualEnvs_djangotest_lib_python2_7_site-packages_django_contrib_auth_models.html'
p1725
sg40
S'/Users/ericdouglas/Documents/VirtualEnvs/djangotest/lib/python2.7/site-packages/django/contrib/auth/models'
p1726
sg42
g13
(g14
g15
NtRp1727
(dp1728
g18
I1
sg19
I0
sg20
I260
sg21
I0
sg22
I0
sg23
I116
sg24
I0
sbssg25
S'K\xf0\xeb\xca\xf9OXfI\x978G\xdb\x95\xd9\xab'
p1729
ssS'_Users_ericdouglas_Documents_VirtualEnvs_djangotest_lib_python2_7_site-packages_django_contrib_staticfiles_handlers'
p1730
(dp1731
g6
(dp1732
g38
S'_Users_ericdouglas_Documents_VirtualEnvs_djangotest_lib_python2_7_site-packages_django_contrib_staticfiles_handlers.html'
p1733
sg40
S'/Users/ericdouglas/Documents/VirtualEnvs/djangotest/lib/python2.7/site-packages/django/contrib/staticfiles/handlers'
p1734
sg42
g13
(g14
g15
NtRp1735
(dp1736
g18
I1
sg19
I0
sg20
I41
sg21
I0
sg22
I0
sg23
I25
sg24
I0
sbssg25
S'e9\xd8\x8d\x91\xb3\x18\xb2\rj\xbd\xfe\x85\xcb*\x80'
p1737
ssS'_Users_ericdouglas_Documents_VirtualEnvs_djangotest_lib_python2_7_site-packages_django_contrib_admin_models'
p1738
(dp1739
g6
(dp1740
g38
S'_Users_ericdouglas_Documents_VirtualEnvs_djangotest_lib_python2_7_site-packages_django_contrib_admin_models.html'
p1741
sg40
S'/Users/ericdouglas/Documents/VirtualEnvs/djangotest/lib/python2.7/site-packages/django/contrib/admin/models'
p1742
sg42
g13
(g14
g15
NtRp1743
(dp1744
g18
I1
sg19
I0
sg20
I57
sg21
I0
sg22
I0
sg23
I21
sg24
I0
sbssg25
S'\xf9\xe4mx\x95\x0c(\xf3\xbb\x1ce\x97\xfet<i'
p1745
ssS'_Users_ericdouglas_Documents_VirtualEnvs_djangotest_lib_python2_7_site-packages_django_utils_numberformat'
p1746
(dp1747
g6
(dp1748
g8
S'_Users_ericdouglas_Documents_VirtualEnvs_djangotest_lib_python2_7_site-packages_django_utils_numberformat.html'
p1749
sg10
S'/Users/ericdouglas/Documents/VirtualEnvs/djangotest/lib/python2.7/site-packages/django/utils/numberformat'
p1750
sg12
g13
(g14
g15
NtRp1751
(dp1752
g18
I1
sg19
I0
sg20
I31
sg21
I0
sg22
I0
sg23
I22
sg24
I0
sbssg25
S'4)(\xd0\x08\xf9\xea \x8f\xe6\xc4r2\xe2\xdc\xf1'
p1753
ssS'_Users_ericdouglas_Documents_VirtualEnvs_djangotest_lib_python2_7_site-packages_django_db_backends_signals'
p1754
(dp1755
g6
(dp1756
g38
S'_Users_ericdouglas_Documents_VirtualEnvs_djangotest_lib_python2_7_site-packages_django_db_backends_signals.html'
p1757
sg40
S'/Users/ericdouglas/Documents/VirtualEnvs/djangotest/lib/python2.7/site-packages/django/db/backends/signals'
p1758
sg42
g13
(g14
g15
NtRp1759
(dp1760
g18
I1
sg19
I0
sg20
I2
sg21
I0
sg22
I0
sg23
I0
sg24
I0
sbssg25
S'\xd0\x7fA\xfb\xdfoE\xbc.\x17\x18\xd7\xa5\xbf\x04\xe4'
p1761
ssS'_Users_ericdouglas_Documents_VirtualEnvs_djangotest_lib_python2_7_site-packages_mimeparse'
p1762
(dp1763
g88
(dp1764
g8
S'_Users_ericdouglas_Documents_VirtualEnvs_djangotest_lib_python2_7_site-packages_mimeparse.html'
p1765
sg10
S'/Users/ericdouglas/Documents/VirtualEnvs/djangotest/lib/python2.7/site-packages/mimeparse'
p1766
sg12
g13
(g14
g15
NtRp1767
(dp1768
g18
I1
sg19
I0
sg20
I54
sg21
I0
sg22
I0
sg23
I41
sg24
I0
sbssg94
S'\x00\xa8;#\xfaZ\xff\xf0\xdaK\xf9\xf8\xd3\xb8\x81\xf3'
p1769
ssS'_Users_ericdouglas_Documents_VirtualEnvs_djangotest_lib_python2_7_site-packages_django_contrib_staticfiles_management___init__'
p1770
(dp1771
g6
(dp1772
g38
S'_Users_ericdouglas_Documents_VirtualEnvs_djangotest_lib_python2_7_site-packages_django_contrib_staticfiles_management___init__.html'
p1773
sg40
S'/Users/ericdouglas/Documents/VirtualEnvs/djangotest/lib/python2.7/site-packages/django/contrib/staticfiles/management/__init__'
p1774
sg42
g13
(g14
g15
NtRp1775
(dp1776
g18
I1
sg19
I0
sg20
I0
sg21
I0
sg22
I0
sg23
I0
sg24
I0
sbssg25
S'\xca\xf5\x9f\x7f\x88\xdfa\x831|T\x1d\xbc}\xa5v'
p1777
ssS'_Users_ericdouglas_Documents_VirtualEnvs_djangotest_lib_python2_7_site-packages_django_contrib_messages_constants'
p1778
(dp1779
g6
(dp1780
g38
S'_Users_ericdouglas_Documents_VirtualEnvs_djangotest_lib_python2_7_site-packages_django_contrib_messages_constants.html'
p1781
sg40
S'/Users/ericdouglas/Documents/VirtualEnvs/djangotest/lib/python2.7/site-packages/django/contrib/messages/constants'
p1782
sg42
g13
(g14
g15
NtRp1783
(dp1784
g18
I1
sg19
I0
sg20
I6
sg21
I0
sg22
I0
sg23
I0
sg24
I0
sbssg25
S'\x99u\x1fZpQ\xa3b\x8f# l\x06w\xe1\xdb'
p1785
ssS'_Users_ericdouglas_Documents_VirtualEnvs_djangotest_lib_python2_7_site-packages_django_contrib_admin_templatetags___init__'
p1786
(dp1787
g6
(dp1788
g38
S'_Users_ericdouglas_Documents_VirtualEnvs_djangotest_lib_python2_7_site-packages_django_contrib_admin_templatetags___init__.html'
p1789
sg40
S'/Users/ericdouglas/Documents/VirtualEnvs/djangotest/lib/python2.7/site-packages/django/contrib/admin/templatetags/__init__'
p1790
sg42
g13
(g14
g15
NtRp1791
(dp1792
g18
I1
sg19
I0
sg20
I0
sg21
I0
sg22
I0
sg23
I0
sg24
I0
sbssg25
S'\xca\xf5\x9f\x7f\x88\xdfa\x831|T\x1d\xbc}\xa5v'
p1793
ssS'_Users_ericdouglas_Documents_VirtualEnvs_djangotest_lib_python2_7_site-packages_django_contrib_sessions_backends___init__'
p1794
(dp1795
g6
(dp1796
g38
S'_Users_ericdouglas_Documents_VirtualEnvs_djangotest_lib_python2_7_site-packages_django_contrib_sessions_backends___init__.html'
p1797
sg40
S'/Users/ericdouglas/Documents/VirtualEnvs/djangotest/lib/python2.7/site-packages/django/contrib/sessions/backends/__init__'
p1798
sg42
g13
(g14
g15
NtRp1799
(dp1800
g18
I1
sg19
I0
sg20
I0
sg21
I0
sg22
I0
sg23
I0
sg24
I0
sbssg25
S'\xca\xf5\x9f\x7f\x88\xdfa\x831|T\x1d\xbc}\xa5v'
p1801
ssS'_Users_ericdouglas_Documents_VirtualEnvs_djangotest_lib_python2_7_site-packages_tastypie_utils_mime'
p1802
(dp1803
g88
(dp1804
g8
S'_Users_ericdouglas_Documents_VirtualEnvs_djangotest_lib_python2_7_site-packages_tastypie_utils_mime.html'
p1805
sg10
S'/Users/ericdouglas/Documents/VirtualEnvs/djangotest/lib/python2.7/site-packages/tastypie/utils/mime'
p1806
sg12
g13
(g14
g15
NtRp1807
(dp1808
g18
I1
sg19
I0
sg20
I25
sg21
I0
sg22
I0
sg23
I20
sg24
I0
sbssg94
S'\xc3\x19\xa6\xa9\xcch\x9d:"\x86\x12\xc2\\\xf0\xc5W'
p1809
ssS'_Users_ericdouglas_Documents_VirtualEnvs_djangotest_lib_python2_7_site-packages_django_db_utils'
p1810
(dp1811
g6
(dp1812
g38
S'_Users_ericdouglas_Documents_VirtualEnvs_djangotest_lib_python2_7_site-packages_django_db_utils.html'
p1813
sg40
S'/Users/ericdouglas/Documents/VirtualEnvs/djangotest/lib/python2.7/site-packages/django/db/utils'
p1814
sg42
g13
(g14
g15
NtRp1815
(dp1816
g18
I1
sg19
I0
sg20
I172
sg21
I0
sg22
I0
sg23
I59
sg24
I0
sbssg25
S'\x01\x83\xbfF{E\x1e\x11\x87\xfd\xa55\x8a\x02\x7f\xb4'
p1817
ssS'_Users_ericdouglas_Documents_VirtualEnvs_djangotest_lib_python2_7_site-packages_django_core_cache___init__'
p1818
(dp1819
g6
(dp1820
g38
S'_Users_ericdouglas_Documents_VirtualEnvs_djangotest_lib_python2_7_site-packages_django_core_cache___init__.html'
p1821
sg40
S'/Users/ericdouglas/Documents/VirtualEnvs/djangotest/lib/python2.7/site-packages/django/core/cache/__init__'
p1822
sg42
g13
(g14
g15
NtRp1823
(dp1824
g18
I1
sg19
I0
sg20
I58
sg21
I0
sg22
I0
sg23
I29
sg24
I0
sbssg25
S'\xe0\xbd\xc3;\x14@\xc2T\x92\xf7\xad\xeey\xe8~\xd9'
p1825
ssS'_Users_ericdouglas_Documents_VirtualEnvs_djangotest_lib_python2_7_site-packages_django_db_models_signals'
p1826
(dp1827
g6
(dp1828
g38
S'_Users_ericdouglas_Documents_VirtualEnvs_djangotest_lib_python2_7_site-packages_django_db_models_signals.html'
p1829
sg40
S'/Users/ericdouglas/Documents/VirtualEnvs/djangotest/lib/python2.7/site-packages/django/db/models/signals'
p1830
sg42
g13
(g14
g15
NtRp1831
(dp1832
g18
I1
sg19
I0
sg20
I11
sg21
I0
sg22
I0
sg23
I0
sg24
I0
sbssg25
S'\x025!\xbd\xfd%\xdc\x0cD"74\xef\xfc\x9b\xa3'
p1833
ssS'_Users_ericdouglas_Documents_VirtualEnvs_djangotest_lib_python2_7_site-packages_tastypie_bundle'
p1834
(dp1835
g88
(dp1836
g8
S'_Users_ericdouglas_Documents_VirtualEnvs_djangotest_lib_python2_7_site-packages_tastypie_bundle.html'
p1837
sg10
S'/Users/ericdouglas/Documents/VirtualEnvs/djangotest/lib/python2.7/site-packages/tastypie/bundle'
p1838
sg12
g13
(g14
g15
NtRp1839
(dp1840
g18
I1
sg19
I0
sg20
I14
sg21
I0
sg22
I0
sg23
I9
sg24
I0
sbssg94
S'Z\xa0\xe2\x80\x0c\\\x02\xa7\xe0\x97\x84\xd3l\xbe\xa6\xad'
p1841
ssS'_Users_ericdouglas_Documents_VirtualEnvs_djangotest_lib_python2_7_site-packages_django_template_context'
p1842
(dp1843
g6
(dp1844
g8
S'_Users_ericdouglas_Documents_VirtualEnvs_djangotest_lib_python2_7_site-packages_django_template_context.html'
p1845
sg10
S'/Users/ericdouglas/Documents/VirtualEnvs/djangotest/lib/python2.7/site-packages/django/template/context'
p1846
sg12
g13
(g14
g15
NtRp1847
(dp1848
g18
I1
sg19
I0
sg20
I104
sg21
I0
sg22
I0
sg23
I35
sg24
I0
sbssg25
S'x\xe4\xe9\\\xed\xc2\x11\xd2)\xcdnIY\x82d\x82'
p1849
ssS'_Users_ericdouglas_Documents_VirtualEnvs_djangotest_lib_python2_7_site-packages_django_db_models_aggregates'
p1850
(dp1851
g6
(dp1852
g38
S'_Users_ericdouglas_Documents_VirtualEnvs_djangotest_lib_python2_7_site-packages_django_db_models_aggregates.html'
p1853
sg40
S'/Users/ericdouglas/Documents/VirtualEnvs/djangotest/lib/python2.7/site-packages/django/db/models/aggregates'
p1854
sg42
g13
(g14
g15
NtRp1855
(dp1856
g18
I1
sg19
I0
sg20
I31
sg21
I0
sg22
I0
sg23
I7
sg24
I0
sbssg25
S'h1I\x13\xd4\xe9\xf2\x0fh\x1b\xb2T\x99\x9b\xba\xbd'
p1857
ssS'_Users_ericdouglas_Documents_VirtualEnvs_djangotest_lib_python2_7_site-packages_django_forms_formsets'
p1858
(dp1859
g6
(dp1860
g38
S'_Users_ericdouglas_Documents_VirtualEnvs_djangotest_lib_python2_7_site-packages_django_forms_formsets.html'
p1861
sg40
S'/Users/ericdouglas/Documents/VirtualEnvs/djangotest/lib/python2.7/site-packages/django/forms/formsets'
p1862
sg42
g13
(g14
g15
NtRp1863
(dp1864
g18
I1
sg19
I0
sg20
I214
sg21
I0
sg22
I0
sg23
I155
sg24
I0
sbssg25
S'\x05*\x85\xe6{c\xf3WX\xb5\x12$]&J\xe0'
p1865
ssS'_Users_ericdouglas_Documents_VirtualEnvs_djangotest_lib_python2_7_site-packages_django_utils_six'
p1866
(dp1867
g6
(dp1868
g38
S'_Users_ericdouglas_Documents_VirtualEnvs_djangotest_lib_python2_7_site-packages_django_utils_six.html'
p1869
sg40
S'/Users/ericdouglas/Documents/VirtualEnvs/djangotest/lib/python2.7/site-packages/django/utils/six'
p1870
sg42
g13
(g14
g15
NtRp1871
(dp1872
g18
I1
sg19
I0
sg20
I346
sg21
I0
sg22
I0
sg23
I158
sg24
I0
sbssg25
S'5\xc4\x8e\xdel\x06\x9a\x9d\xa3\xf3\t\xc5\xda\xf0\x97\t'
p1873
ssS'_Users_ericdouglas_Documents_VirtualEnvs_djangotest_lib_python2_7_site-packages_django_contrib_admin_options'
p1874
(dp1875
g6
(dp1876
g8
S'_Users_ericdouglas_Documents_VirtualEnvs_djangotest_lib_python2_7_site-packages_django_contrib_admin_options.html'
p1877
sg10
S'/Users/ericdouglas/Documents/VirtualEnvs/djangotest/lib/python2.7/site-packages/django/contrib/admin/options'
p1878
sg12
g13
(g14
g15
NtRp1879
(dp1880
g18
I1
sg19
I0
sg20
I873
sg21
I0
sg22
I0
sg23
I673
sg24
I0
sbssg25
S'\xd5\xfd\x1d\x0b\xbc\x9c\xda\x1e\x89\xb8\x16z\xd2\xb8|e'
p1881
ssS'_Users_ericdouglas_Documents_VirtualEnvs_djangotest_lib_python2_7_site-packages_django_db_models_query'
p1882
(dp1883
g6
(dp1884
g8
S'_Users_ericdouglas_Documents_VirtualEnvs_djangotest_lib_python2_7_site-packages_django_db_models_query.html'
p1885
sg10
S'/Users/ericdouglas/Documents/VirtualEnvs/djangotest/lib/python2.7/site-packages/django/db/models/query'
p1886
sg12
g13
(g14
g15
NtRp1887
(dp1888
g18
I1
sg19
I0
sg20
I891
sg21
I0
sg22
I0
sg23
I609
sg24
I0
sbssg25
S'\xdc\xc7\xfc\x16F\xf8\x8b\x98\xe6\xd4~\xc8X\xb8;!'
p1889
ssS'_Users_ericdouglas_Documents_VirtualEnvs_djangotest_lib_python2_7_site-packages_django_contrib_messages_storage_session'
p1890
(dp1891
g88
(dp1892
g8
S'_Users_ericdouglas_Documents_VirtualEnvs_djangotest_lib_python2_7_site-packages_django_contrib_messages_storage_session.html'
p1893
sg10
S'/Users/ericdouglas/Documents/VirtualEnvs/djangotest/lib/python2.7/site-packages/django/contrib/messages/storage/session'
p1894
sg12
g13
(g14
g15
NtRp1895
(dp1896
g18
I1
sg19
I0
sg20
I23
sg21
I0
sg22
I0
sg23
I10
sg24
I0
sbssg94
S'\xa3\x90\x83\xacq*\x12\xe6p\x08\xd68\xb7\x1f\x97\xf7'
p1897
ssS'_Users_ericdouglas_Documents_VirtualEnvs_djangotest_lib_python2_7_site-packages_django_template_defaultfilters'
p1898
(dp1899
g6
(dp1900
g8
S'_Users_ericdouglas_Documents_VirtualEnvs_djangotest_lib_python2_7_site-packages_django_template_defaultfilters.html'
p1901
sg10
S'/Users/ericdouglas/Documents/VirtualEnvs/djangotest/lib/python2.7/site-packages/django/template/defaultfilters'
p1902
sg12
g13
(g14
g15
NtRp1903
(dp1904
g18
I1
sg19
I0
sg20
I454
sg21
I0
sg22
I0
sg23
I315
sg24
I0
sbssg25
S'\xf9\x80n\xf6g\xc8VH\xf3\x0f\xd1\x9b\x96]\x8e\x1b'
p1905
ssS'_Users_ericdouglas_Documents_VirtualEnvs_djangotest_lib_python2_7_site-packages_django_utils_unittest_util'
p1906
(dp1907
g6
(dp1908
g38
S'_Users_ericdouglas_Documents_VirtualEnvs_djangotest_lib_python2_7_site-packages_django_utils_unittest_util.html'
p1909
sg40
S'/Users/ericdouglas/Documents/VirtualEnvs/djangotest/lib/python2.7/site-packages/django/utils/unittest/util'
p1910
sg42
g13
(g14
g15
NtRp1911
(dp1912
g18
I1
sg19
I0
sg20
I74
sg21
I0
sg22
I0
sg23
I67
sg24
I0
sbssg25
S')\xb0\xd3\xe9\xb4\x86\xbf\x1f\xaaI\xefA\xbf\x9a\xd3\x99'
p1913
ssS'_Users_ericdouglas_Documents_VirtualEnvs_djangotest_lib_python2_7_site-packages_django_contrib_auth_signals'
p1914
(dp1915
g6
(dp1916
g38
S'_Users_ericdouglas_Documents_VirtualEnvs_djangotest_lib_python2_7_site-packages_django_contrib_auth_signals.html'
p1917
sg40
S'/Users/ericdouglas/Documents/VirtualEnvs/djangotest/lib/python2.7/site-packages/django/contrib/auth/signals'
p1918
sg42
g13
(g14
g15
NtRp1919
(dp1920
g18
I1
sg19
I0
sg20
I4
sg21
I0
sg22
I0
sg23
I0
sg24
I0
sbssg25
S'\x89\x9c\xaa;\xc3\xa0\x92\xe0\x14HX\x86\x17\\\xf6z'
p1921
ssS'_Users_ericdouglas_Documents_VirtualEnvs_djangotest_lib_python2_7_site-packages_django_views_static'
p1922
(dp1923
g6
(dp1924
g38
S'_Users_ericdouglas_Documents_VirtualEnvs_djangotest_lib_python2_7_site-packages_django_views_static.html'
p1925
sg40
S'/Users/ericdouglas/Documents/VirtualEnvs/djangotest/lib/python2.7/site-packages/django/views/static'
p1926
sg42
g13
(g14
g15
NtRp1927
(dp1928
g18
I1
sg19
I0
sg20
I73
sg21
I0
sg22
I0
sg23
I57
sg24
I0
sbssg25
S'&5\x82E\x8b\xf0\xe2K\x17\xdf\x8b\x1a\xc4\xc8\xad\x83'
p1929
ssS'_Users_ericdouglas_Documents_VirtualEnvs_djangotest_lib_python2_7_site-packages_django_template_debug'
p1930
(dp1931
g88
(dp1932
g8
S'_Users_ericdouglas_Documents_VirtualEnvs_djangotest_lib_python2_7_site-packages_django_template_debug.html'
p1933
sg10
S'/Users/ericdouglas/Documents/VirtualEnvs/djangotest/lib/python2.7/site-packages/django/template/debug'
p1934
sg12
g13
(g14
g15
NtRp1935
(dp1936
g18
I1
sg19
I0
sg20
I81
sg21
I0
sg22
I0
sg23
I21
sg24
I0
sbssg94
S'\xc7\r\xf5\xd7\xbb\x13/\x12L\xa0\xd4x\x8d*F\xb5'
p1937
ssS'_Users_ericdouglas_Documents_VirtualEnvs_djangotest_lib_python2_7_site-packages_django_db_backends___init__'
p1938
(dp1939
g6
(dp1940
g38
S'_Users_ericdouglas_Documents_VirtualEnvs_djangotest_lib_python2_7_site-packages_django_db_backends___init__.html'
p1941
sg40
S'/Users/ericdouglas/Documents/VirtualEnvs/djangotest/lib/python2.7/site-packages/django/db/backends/__init__'
p1942
sg42
g13
(g14
g15
NtRp1943
(dp1944
g18
I1
sg19
I0
sg20
I548
sg21
I0
sg22
I0
sg23
I188
sg24
I0
sbssg25
S'K\x8e\xaa\x81p\x96\x1a\xac"\xff\x17\xa0 Iy\xc2'
p1945
ssS'_Users_ericdouglas_Documents_VirtualEnvs_djangotest_lib_python2_7_site-packages_django_core_signals'
p1946
(dp1947
g6
(dp1948
g38
S'_Users_ericdouglas_Documents_VirtualEnvs_djangotest_lib_python2_7_site-packages_django_core_signals.html'
p1949
sg40
S'/Users/ericdouglas/Documents/VirtualEnvs/djangotest/lib/python2.7/site-packages/django/core/signals'
p1950
sg42
g13
(g14
g15
NtRp1951
(dp1952
g18
I1
sg19
I0
sg20
I4
sg21
I0
sg22
I0
sg23
I0
sg24
I0
sbssg25
S'\x11)\xaf\xa7<%!O_\xa5\xae\x81Dl\xa7C'
p1953
ssS'_Users_ericdouglas_Documents_VirtualEnvs_djangotest_lib_python2_7_site-packages_tastypie_utils___init__'
p1954
(dp1955
g88
(dp1956
g8
S'_Users_ericdouglas_Documents_VirtualEnvs_djangotest_lib_python2_7_site-packages_tastypie_utils___init__.html'
p1957
sg10
S'/Users/ericdouglas/Documents/VirtualEnvs/djangotest/lib/python2.7/site-packages/tastypie/utils/__init__'
p1958
sg12
g13
(g14
g15
NtRp1959
(dp1960
g18
I1
sg19
I0
sg20
I5
sg21
I0
sg22
I0
sg23
I0
sg24
I0
sbssg94
S'\xfd\x15~^\xa45\xd9&\x14\xbc\xc3p\xf2K2\xf8'
p1961
ssS'_Users_ericdouglas_Documents_VirtualEnvs_djangotest_lib_python2_7_site-packages_django_forms_widgets'
p1962
(dp1963
g6
(dp1964
g8
S'_Users_ericdouglas_Documents_VirtualEnvs_djangotest_lib_python2_7_site-packages_django_forms_widgets.html'
p1965
sg10
S'/Users/ericdouglas/Documents/VirtualEnvs/djangotest/lib/python2.7/site-packages/django/forms/widgets'
p1966
sg12
g13
(g14
g15
NtRp1967
(dp1968
g18
I1
sg19
I0
sg20
I522
sg21
I0
sg22
I0
sg23
I320
sg24
I0
sbssg25
S';lp\xeb\x93\x12\x10\xa3\xfe\\\xb1\x97\xaa>B\xc8'
p1969
ssS'_Users_ericdouglas_Documents_VirtualEnvs_djangotest_lib_python2_7_site-packages_django_template_loaders_app_directories'
p1970
(dp1971
g88
(dp1972
g8
S'_Users_ericdouglas_Documents_VirtualEnvs_djangotest_lib_python2_7_site-packages_django_template_loaders_app_directories.html'
p1973
sg10
S'/Users/ericdouglas/Documents/VirtualEnvs/djangotest/lib/python2.7/site-packages/django/template/loaders/app_directories'
p1974
sg12
g13
(g14
g15
NtRp1975
(dp1976
g18
I1
sg19
I0
sg20
I43
sg21
I0
sg22
I0
sg23
I18
sg24
I0
sbssg94
S"\xd5\x15\x06\xd8\xd3\x12a2\xcf2\xb6Z\n'\xf6\xf3"
p1977
ssS'_Users_ericdouglas_Documents_VirtualEnvs_djangotest_lib_python2_7_site-packages_django_contrib_admin_widgets'
p1978
(dp1979
g6
(dp1980
g38
S'_Users_ericdouglas_Documents_VirtualEnvs_djangotest_lib_python2_7_site-packages_django_contrib_admin_widgets.html'
p1981
sg40
S'/Users/ericdouglas/Documents/VirtualEnvs/djangotest/lib/python2.7/site-packages/django/contrib/admin/widgets'
p1982
sg42
g13
(g14
g15
NtRp1983
(dp1984
g18
I1
sg19
I0
sg20
I218
sg21
I0
sg22
I0
sg23
I149
sg24
I0
sbssg25
S'\x00\xc8\xa1\xa2D\x8bvh\xb0pO3!o\xe2d'
p1985
ssS'_Users_ericdouglas_Documents_VirtualEnvs_djangotest_lib_python2_7_site-packages_django_views_generic_list'
p1986
(dp1987
g88
(dp1988
g8
S'_Users_ericdouglas_Documents_VirtualEnvs_djangotest_lib_python2_7_site-packages_django_views_generic_list.html'
p1989
sg10
S'/Users/ericdouglas/Documents/VirtualEnvs/djangotest/lib/python2.7/site-packages/django/views/generic/list'
p1990
sg12
g13
(g14
g15
NtRp1991
(dp1992
g18
I1
sg19
I0
sg20
I89
sg21
I0
sg22
I0
sg23
I60
sg24
I0
sbssg94
S'g$\x1b\xad\xee.c\x9er\x85\xc7`\x86\n0m'
p1993
ssS'_Users_ericdouglas_Documents_VirtualEnvs_djangotest_lib_python2_7_site-packages_django_middleware_common'
p1994
(dp1995
g88
(dp1996
g8
S'_Users_ericdouglas_Documents_VirtualEnvs_djangotest_lib_python2_7_site-packages_django_middleware_common.html'
p1997
sg10
S'/Users/ericdouglas/Documents/VirtualEnvs/djangotest/lib/python2.7/site-packages/django/middleware/common'
p1998
sg12
g13
(g14
g15
NtRp1999
(dp2000
g18
I1
sg19
I0
sg20
I77
sg21
I0
sg22
I0
sg23
I47
sg24
I0
sbssg94
S'n\x03j\xb0*Q:\t\xf0\x87\xc2g\xaao\xef\xe7'
p2001
ssS'_Users_ericdouglas_Documents_VirtualEnvs_djangotest_lib_python2_7_site-packages_django_core_files_images'
p2002
(dp2003
g6
(dp2004
g38
S'_Users_ericdouglas_Documents_VirtualEnvs_djangotest_lib_python2_7_site-packages_django_core_files_images.html'
p2005
sg40
S'/Users/ericdouglas/Documents/VirtualEnvs/djangotest/lib/python2.7/site-packages/django/core/files/images'
p2006
sg42
g13
(g14
g15
NtRp2007
(dp2008
g18
I1
sg19
I0
sg20
I43
sg21
I0
sg22
I0
sg23
I34
sg24
I0
sbssg25
S'Z\xe7k\x87\x0c]\xa6@\x18@T,E\x1d\x14\x90'
p2009
ssS'_Users_ericdouglas_Documents_VirtualEnvs_djangotest_lib_python2_7_site-packages_django_utils_http'
p2010
(dp2011
g6
(dp2012
g8
S'_Users_ericdouglas_Documents_VirtualEnvs_djangotest_lib_python2_7_site-packages_django_utils_http.html'
p2013
sg10
S'/Users/ericdouglas/Documents/VirtualEnvs/djangotest/lib/python2.7/site-packages/django/utils/http'
p2014
sg12
g13
(g14
g15
NtRp2015
(dp2016
g18
I1
sg19
I0
sg20
I135
sg21
I0
sg22
I0
sg23
I83
sg24
I0
sbssg25
S'\xb2w|\xfd\xbdN\x1du\x05^FE\x94\x0c[\x90'
p2017
ssS'_Users_ericdouglas_Documents_VirtualEnvs_djangotest_lib_python2_7_site-packages_django_contrib_auth_tokens'
p2018
(dp2019
g6
(dp2020
g38
S'_Users_ericdouglas_Documents_VirtualEnvs_djangotest_lib_python2_7_site-packages_django_contrib_auth_tokens.html'
p2021
sg40
S'/Users/ericdouglas/Documents/VirtualEnvs/djangotest/lib/python2.7/site-packages/django/contrib/auth/tokens'
p2022
sg42
g13
(g14
g15
NtRp2023
(dp2024
g18
I1
sg19
I0
sg20
I34
sg21
I0
sg22
I0
sg23
I22
sg24
I0
sbssg25
S'\x835\x03\xf2\xc5\xc6\x97\x80%R\x92dm\xef\xba\xa5'
p2025
ssS'article_forms'
p2026
(dp2027
g88
(dp2028
g8
S'article_forms.html'
p2029
sg10
S'article/forms'
p2030
sg12
g13
(g14
g15
NtRp2031
(dp2032
g18
I1
sg19
I0
sg20
I10
sg21
I0
sg22
I0
sg23
I0
sg24
I0
sbssg94
S'\xe4o\x89\xb5f\xc1\xd9#U\xc35\xa5jBB\x18'
p2033
ssS'_Users_ericdouglas_Documents_VirtualEnvs_djangotest_lib_python2_7_site-packages_django_db_models_fields_related'
p2034
(dp2035
g6
(dp2036
g8
S'_Users_ericdouglas_Documents_VirtualEnvs_djangotest_lib_python2_7_site-packages_django_db_models_fields_related.html'
p2037
sg10
S'/Users/ericdouglas/Documents/VirtualEnvs/djangotest/lib/python2.7/site-packages/django/db/models/fields/related'
p2038
sg12
g13
(g14
g15
NtRp2039
(dp2040
g18
I1
sg19
I0
sg20
I840
sg21
I0
sg22
I0
sg23
I465
sg24
I0
sbssg25
S'\xec\xa4\xbe\x82\xf5\xd9;\xf7G\x0bM^\x0e\xbf\x01\xd1'
p2041
ssS'_Users_ericdouglas_Documents_VirtualEnvs_djangotest_lib_python2_7_site-packages_django_views_decorators___init__'
p2042
(dp2043
g6
(dp2044
g38
S'_Users_ericdouglas_Documents_VirtualEnvs_djangotest_lib_python2_7_site-packages_django_views_decorators___init__.html'
p2045
sg40
S'/Users/ericdouglas/Documents/VirtualEnvs/djangotest/lib/python2.7/site-packages/django/views/decorators/__init__'
p2046
sg42
g13
(g14
g15
NtRp2047
(dp2048
g18
I1
sg19
I0
sg20
I0
sg21
I0
sg22
I0
sg23
I0
sg24
I0
sbssg25
S'\xca\xf5\x9f\x7f\x88\xdfa\x831|T\x1d\xbc}\xa5v'
p2049
ssS'_Users_ericdouglas_Documents_VirtualEnvs_djangotest_lib_python2_7_site-packages_django_utils_html_parser'
p2050
(dp2051
g6
(dp2052
g38
S'_Users_ericdouglas_Documents_VirtualEnvs_djangotest_lib_python2_7_site-packages_django_utils_html_parser.html'
p2053
sg40
S'/Users/ericdouglas/Documents/VirtualEnvs/djangotest/lib/python2.7/site-packages/django/utils/html_parser'
p2054
sg42
g13
(g14
g15
NtRp2055
(dp2056
g18
I1
sg19
I0
sg20
I82
sg21
I0
sg22
I0
sg23
I74
sg24
I0
sbssg25
S'\x87d\xc4\xd5\x1d\x83\x0c\xb2e#g\xbe1\xa2\x07\xa9'
p2057
ssS'_Users_ericdouglas_Documents_VirtualEnvs_djangotest_lib_python2_7_site-packages_django_utils_baseconv'
p2058
(dp2059
g6
(dp2060
g38
S'_Users_ericdouglas_Documents_VirtualEnvs_djangotest_lib_python2_7_site-packages_django_utils_baseconv.html'
p2061
sg40
S'/Users/ericdouglas/Documents/VirtualEnvs/djangotest/lib/python2.7/site-packages/django/utils/baseconv'
p2062
sg42
g13
(g14
g15
NtRp2063
(dp2064
g18
I1
sg19
I0
sg20
I48
sg21
I0
sg22
I0
sg23
I25
sg24
I0
sbssg25
S'\x10o\xe0R\x15\xc8\xd3.&\xfa\xd7"k\xbf\xa1Z'
p2065
ssS'_Users_ericdouglas_Documents_VirtualEnvs_djangotest_lib_python2_7_site-packages_django_utils_module_loading'
p2066
(dp2067
g6
(dp2068
g8
S'_Users_ericdouglas_Documents_VirtualEnvs_djangotest_lib_python2_7_site-packages_django_utils_module_loading.html'
p2069
sg10
S'/Users/ericdouglas/Documents/VirtualEnvs/djangotest/lib/python2.7/site-packages/django/utils/module_loading'
p2070
sg12
g13
(g14
g15
NtRp2071
(dp2072
g18
I1
sg19
I0
sg20
I66
sg21
I0
sg22
I0
sg23
I34
sg24
I0
sbssg25
S'kh\xbd\x18\x86\xaaE\xbbC\x07~\xe97%\xbak'
p2073
ssS'_Users_ericdouglas_Documents_VirtualEnvs_djangotest_lib_python2_7_site-packages_django_core_exceptions'
p2074
(dp2075
g6
(dp2076
g38
S'_Users_ericdouglas_Documents_VirtualEnvs_djangotest_lib_python2_7_site-packages_django_core_exceptions.html'
p2077
sg40
S'/Users/ericdouglas/Documents/VirtualEnvs/djangotest/lib/python2.7/site-packages/django/core/exceptions'
p2078
sg42
g13
(g14
g15
NtRp2079
(dp2080
g18
I1
sg19
I0
sg20
I76
sg21
I0
sg22
I0
sg23
I40
sg24
I0
sbssg25
S"(}/8r'\xc6\x101\xa5\xe5\xbeS\xe3Q\x8f"
p2081
ssS'_Users_ericdouglas_Documents_VirtualEnvs_djangotest_lib_python2_7_site-packages_django_utils_formats'
p2082
(dp2083
g6
(dp2084
g8
S'_Users_ericdouglas_Documents_VirtualEnvs_djangotest_lib_python2_7_site-packages_django_utils_formats.html'
p2085
sg10
S'/Users/ericdouglas/Documents/VirtualEnvs/djangotest/lib/python2.7/site-packages/django/utils/formats'
p2086
sg12
g13
(g14
g15
NtRp2087
(dp2088
g18
I1
sg19
I0
sg20
I117
sg21
I0
sg22
I0
sg23
I48
sg24
I0
sbssg25
S'&\xf6/\xae\xff\xad\xbe\x80\x8c\xf0y\xb2\xe3#i\xb0'
p2089
ssS'_Users_ericdouglas_Documents_VirtualEnvs_djangotest_lib_python2_7_site-packages_django_template_defaulttags'
p2090
(dp2091
g6
(dp2092
g8
S'_Users_ericdouglas_Documents_VirtualEnvs_djangotest_lib_python2_7_site-packages_django_template_defaulttags.html'
p2093
sg10
S'/Users/ericdouglas/Documents/VirtualEnvs/djangotest/lib/python2.7/site-packages/django/template/defaulttags'
p2094
sg12
g13
(g14
g15
NtRp2095
(dp2096
g18
I1
sg19
I0
sg20
I623
sg21
I0
sg22
I0
sg23
I409
sg24
I0
sbssg25
S'\xa3\x88\x85\xc7\xd2\x0b7\xdc\xd8\xd5m\xd5\x02\x9f\xab~'
p2097
ssS'_Users_ericdouglas_Documents_VirtualEnvs_djangotest_lib_python2_7_site-packages_django_contrib_contenttypes_management'
p2098
(dp2099
g6
(dp2100
g38
S'_Users_ericdouglas_Documents_VirtualEnvs_djangotest_lib_python2_7_site-packages_django_contrib_contenttypes_management.html'
p2101
sg40
S'/Users/ericdouglas/Documents/VirtualEnvs/djangotest/lib/python2.7/site-packages/django/contrib/contenttypes/management'
p2102
sg42
g13
(g14
g15
NtRp2103
(dp2104
g18
I1
sg19
I0
sg20
I44
sg21
I0
sg22
I0
sg23
I19
sg24
I0
sbssg25
S'\xad\xdfL\x089\xdd\xe6\x8d\xeb\xa2\xb1\xea\xf6\xd2Bz'
p2105
ssS'_Users_ericdouglas_Documents_VirtualEnvs_djangotest_lib_python2_7_site-packages_django_conf_locale___init__'
p2106
(dp2107
g6
(dp2108
g38
S'_Users_ericdouglas_Documents_VirtualEnvs_djangotest_lib_python2_7_site-packages_django_conf_locale___init__.html'
p2109
sg40
S'/Users/ericdouglas/Documents/VirtualEnvs/djangotest/lib/python2.7/site-packages/django/conf/locale/__init__'
p2110
sg42
g13
(g14
g15
NtRp2111
(dp2112
g18
I1
sg19
I0
sg20
I2
sg21
I0
sg22
I0
sg23
I0
sg24
I0
sbssg25
S"\xf9\xdf\t\x9c(6\xfa\xbd'\xc9\xff\xe42\x9b\x84]"
p2113
ssS'_Users_ericdouglas_Documents_VirtualEnvs_djangotest_lib_python2_7_site-packages_django_db_models_sql_aggregates'
p2114
(dp2115
g6
(dp2116
g8
S'_Users_ericdouglas_Documents_VirtualEnvs_djangotest_lib_python2_7_site-packages_django_db_models_sql_aggregates.html'
p2117
sg10
S'/Users/ericdouglas/Documents/VirtualEnvs/djangotest/lib/python2.7/site-packages/django/db/models/sql/aggregates'
p2118
sg12
g13
(g14
g15
NtRp2119
(dp2120
g18
I1
sg19
I0
sg20
I61
sg21
I0
sg22
I0
sg23
I13
sg24
I0
sbssg25
S'\xe8\x8c\xbb\x02\x83\xf5\xfa\x18\x0e\xa3_\xb2\xd3W\xe9\xb4'
p2121
ssS'_Users_ericdouglas_Documents_VirtualEnvs_djangotest_lib_python2_7_site-packages_django_core___init__'
p2122
(dp2123
g6
(dp2124
g38
S'_Users_ericdouglas_Documents_VirtualEnvs_djangotest_lib_python2_7_site-packages_django_core___init__.html'
p2125
sg40
S'/Users/ericdouglas/Documents/VirtualEnvs/djangotest/lib/python2.7/site-packages/django/core/__init__'
p2126
sg42
g13
(g14
g15
NtRp2127
(dp2128
g18
I1
sg19
I0
sg20
I0
sg21
I0
sg22
I0
sg23
I0
sg24
I0
sbssg25
S'\xca\xf5\x9f\x7f\x88\xdfa\x831|T\x1d\xbc}\xa5v'
p2129
ssS'_Users_ericdouglas_Documents_VirtualEnvs_djangotest_lib_python2_7_site-packages_dateutil_relativedelta'
p2130
(dp2131
g88
(dp2132
g8
S'_Users_ericdouglas_Documents_VirtualEnvs_djangotest_lib_python2_7_site-packages_dateutil_relativedelta.html'
p2133
sg10
S'/Users/ericdouglas/Documents/VirtualEnvs/djangotest/lib/python2.7/site-packages/dateutil/relativedelta'
p2134
sg12
g13
(g14
g15
NtRp2135
(dp2136
g18
I1
sg19
I0
sg20
I223
sg21
I0
sg22
I0
sg23
I192
sg24
I0
sbssg94
S'\x0e\xc8\x92B\x7fV\x01\xb0L\x91@\x08\xd0k\xf5!'
p2137
ssS'_Users_ericdouglas_Documents_VirtualEnvs_djangotest_lib_python2_7_site-packages_django_forms_models'
p2138
(dp2139
g6
(dp2140
g38
S'_Users_ericdouglas_Documents_VirtualEnvs_djangotest_lib_python2_7_site-packages_django_forms_models.html'
p2141
sg40
S'/Users/ericdouglas/Documents/VirtualEnvs/djangotest/lib/python2.7/site-packages/django/forms/models'
p2142
sg42
g13
(g14
g15
NtRp2143
(dp2144
g18
I1
sg19
I0
sg20
I654
sg21
I0
sg22
I0
sg23
I476
sg24
I0
sbssg25
S'\xe6\x8f\xa6\x93\x06\xf6\xffG=\xc9\x83\x99\xf1J}f'
p2145
ssS'_Users_ericdouglas_Documents_VirtualEnvs_djangotest_lib_python2_7_site-packages_django_contrib_staticfiles_templatetags_staticfiles'
p2146
(dp2147
g6
(dp2148
g38
S'_Users_ericdouglas_Documents_VirtualEnvs_djangotest_lib_python2_7_site-packages_django_contrib_staticfiles_templatetags_staticfiles.html'
p2149
sg40
S'/Users/ericdouglas/Documents/VirtualEnvs/djangotest/lib/python2.7/site-packages/django/contrib/staticfiles/templatetags/staticfiles'
p2150
sg42
g13
(g14
g15
NtRp2151
(dp2152
g18
I1
sg19
I0
sg20
I12
sg21
I0
sg22
I0
sg23
I4
sg24
I0
sbssg25
S'Yr\xd1@\xa6D\xd8\xc6\x1a\xe1\x8e\x06\xe6ue|'
p2153
ssS'_Users_ericdouglas_Documents_VirtualEnvs_djangotest_lib_python2_7_site-packages_django_core_management_commands_loaddata'
p2154
(dp2155
g6
(dp2156
g38
S'_Users_ericdouglas_Documents_VirtualEnvs_djangotest_lib_python2_7_site-packages_django_core_management_commands_loaddata.html'
p2157
sg40
S'/Users/ericdouglas/Documents/VirtualEnvs/djangotest/lib/python2.7/site-packages/django/core/management/commands/loaddata'
p2158
sg42
g13
(g14
g15
NtRp2159
(dp2160
g18
I1
sg19
I0
sg20
I166
sg21
I0
sg22
I0
sg23
I66
sg24
I0
sbssg25
S'qc\xf4\xee\xe6\x82\x10P<\x98\xef\x10[\xef[\x9b'
p2161
ssS'_Users_ericdouglas_Documents_VirtualEnvs_djangotest_lib_python2_7_site-packages_django_core_urlresolvers'
p2162
(dp2163
g6
(dp2164
g8
S'_Users_ericdouglas_Documents_VirtualEnvs_djangotest_lib_python2_7_site-packages_django_core_urlresolvers.html'
p2165
sg10
S'/Users/ericdouglas/Documents/VirtualEnvs/djangotest/lib/python2.7/site-packages/django/core/urlresolvers'
p2166
sg12
g13
(g14
g15
NtRp2167
(dp2168
g18
I1
sg19
I0
sg20
I377
sg21
I0
sg22
I0
sg23
I112
sg24
I0
sbssg25
S'yS\xf5L\xeb"\xfa\xc0\xba\xf77o\xb3=\xd1\x9f'
p2169
ssS'_Users_ericdouglas_Documents_VirtualEnvs_djangotest_lib_python2_7_site-packages_django_db_models_fields_proxy'
p2170
(dp2171
g6
(dp2172
g38
S'_Users_ericdouglas_Documents_VirtualEnvs_djangotest_lib_python2_7_site-packages_django_db_models_fields_proxy.html'
p2173
sg40
S'/Users/ericdouglas/Documents/VirtualEnvs/djangotest/lib/python2.7/site-packages/django/db/models/fields/proxy'
p2174
sg42
g13
(g14
g15
NtRp2175
(dp2176
g18
I1
sg19
I0
sg20
I6
sg21
I0
sg22
I0
sg23
I3
sg24
I0
sbssg25
S'V\x13\xa3\x82& \x8au\xa8\xde\xd3\x84\xd0B\xc1\x80'
p2177
ssS'_Users_ericdouglas_Documents_VirtualEnvs_djangotest_lib_python2_7_site-packages_django_middleware_clickjacking'
p2178
(dp2179
g88
(dp2180
g8
S'_Users_ericdouglas_Documents_VirtualEnvs_djangotest_lib_python2_7_site-packages_django_middleware_clickjacking.html'
p2181
sg10
S'/Users/ericdouglas/Documents/VirtualEnvs/djangotest/lib/python2.7/site-packages/django/middleware/clickjacking'
p2182
sg12
g13
(g14
g15
NtRp2183
(dp2184
g18
I1
sg19
I0
sg20
I11
sg21
I0
sg22
I0
sg23
I2
sg24
I0
sbssg94
S'\xcc\xac\xf8nKw\x90\x82\xdf\x15\xe4\x8e\xff\x15\xca\xca'
p2185
ssS'_Users_ericdouglas_Documents_VirtualEnvs_djangotest_lib_python2_7_site-packages_django_contrib_messages_storage___init__'
p2186
(dp2187
g6
(dp2188
g38
S'_Users_ericdouglas_Documents_VirtualEnvs_djangotest_lib_python2_7_site-packages_django_contrib_messages_storage___init__.html'
p2189
sg40
S'/Users/ericdouglas/Documents/VirtualEnvs/djangotest/lib/python2.7/site-packages/django/contrib/messages/storage/__init__'
p2190
sg42
g13
(g14
g15
NtRp2191
(dp2192
g18
I1
sg19
I0
sg20
I3
sg21
I0
sg22
I0
sg23
I0
sg24
I0
sbssg25
S'V\x94\xb8\x83~\xeb\xbbT\xecJ\x02\xdd*\x08B\xad'
p2193
ssS'_Users_ericdouglas_Documents_VirtualEnvs_djangotest_lib_python2_7_site-packages_django_utils_ipv6'
p2194
(dp2195
g6
(dp2196
g38
S'_Users_ericdouglas_Documents_VirtualEnvs_djangotest_lib_python2_7_site-packages_django_utils_ipv6.html'
p2197
sg40
S'/Users/ericdouglas/Documents/VirtualEnvs/djangotest/lib/python2.7/site-packages/django/utils/ipv6'
p2198
sg42
g13
(g14
g15
NtRp2199
(dp2200
g18
I1
sg19
I0
sg20
I108
sg21
I0
sg22
I0
sg23
I99
sg24
I0
sbssg25
S'\xe3d\xb6\xc6G\xbc\x05=\x85j\xee~\xfb\xd2g\xda'
p2201
ssS'_Users_ericdouglas_Documents_VirtualEnvs_djangotest_lib_python2_7_site-packages_django_views_debug'
p2202
(dp2203
g6
(dp2204
g38
S'_Users_ericdouglas_Documents_VirtualEnvs_djangotest_lib_python2_7_site-packages_django_views_debug.html'
p2205
sg40
S'/Users/ericdouglas/Documents/VirtualEnvs/djangotest/lib/python2.7/site-packages/django/views/debug'
p2206
sg42
g13
(g14
g15
NtRp2207
(dp2208
g18
I1
sg19
I0
sg20
I291
sg21
I0
sg22
I0
sg23
I242
sg24
I0
sbssg25
S'(\x9a"o\xe1\x07\x9f\xec\xb5\x0c\x96\xbaM\xe3\x19\xa1'
p2209
ssS'_Users_ericdouglas_Documents_VirtualEnvs_djangotest_lib_python2_7_site-packages_lxml___init__'
p2210
(dp2211
g88
(dp2212
g8
S'_Users_ericdouglas_Documents_VirtualEnvs_djangotest_lib_python2_7_site-packages_lxml___init__.html'
p2213
sg10
S'/Users/ericdouglas/Documents/VirtualEnvs/djangotest/lib/python2.7/site-packages/lxml/__init__'
p2214
sg12
g13
(g14
g15
NtRp2215
(dp2216
g18
I1
sg19
I0
sg20
I10
sg21
I0
sg22
I0
sg23
I9
sg24
I0
sbssg94
S':a\xf1\x1a\xce\x81\t\xc7\x9c}\xe9g\xa5 \x11\\'
p2217
ssS'_Users_ericdouglas_Documents_VirtualEnvs_djangotest_lib_python2_7_site-packages_django_utils_datetime_safe'
p2218
(dp2219
g6
(dp2220
g38
S'_Users_ericdouglas_Documents_VirtualEnvs_djangotest_lib_python2_7_site-packages_django_utils_datetime_safe.html'
p2221
sg40
S'/Users/ericdouglas/Documents/VirtualEnvs/djangotest/lib/python2.7/site-packages/django/utils/datetime_safe'
p2222
sg42
g13
(g14
g15
NtRp2223
(dp2224
g18
I1
sg19
I0
sg20
I56
sg21
I0
sg22
I0
sg23
I42
sg24
I0
sbssg25
S'\xce\xd7J\x80\x7fi\xb5\xc2\x830\xe4\x10\x06@\xd5H'
p2225
ssS'_Users_ericdouglas_Documents_VirtualEnvs_djangotest_lib_python2_7_site-packages_django_contrib_auth_backends'
p2226
(dp2227
g88
(dp2228
g8
S'_Users_ericdouglas_Documents_VirtualEnvs_djangotest_lib_python2_7_site-packages_django_contrib_auth_backends.html'
p2229
sg10
S'/Users/ericdouglas/Documents/VirtualEnvs/djangotest/lib/python2.7/site-packages/django/contrib/auth/backends'
p2230
sg12
g13
(g14
g15
NtRp2231
(dp2232
g18
I1
sg19
I0
sg20
I71
sg21
I0
sg22
I0
sg23
I56
sg24
I0
sbssg94
S'\xdbtyo\xfbx\xd6\xe6\xfe\xf3`c>\x977\xcf'
p2233
ssS'_Users_ericdouglas_Documents_VirtualEnvs_djangotest_lib_python2_7_site-packages_tastypie_paginator'
p2234
(dp2235
g88
(dp2236
g8
S'_Users_ericdouglas_Documents_VirtualEnvs_djangotest_lib_python2_7_site-packages_tastypie_paginator.html'
p2237
sg10
S'/Users/ericdouglas/Documents/VirtualEnvs/djangotest/lib/python2.7/site-packages/tastypie/paginator'
p2238
sg12
g13
(g14
g15
NtRp2239
(dp2240
g18
I1
sg19
I0
sg20
I92
sg21
I0
sg22
I0
sg23
I74
sg24
I0
sbssg94
S'N\xa1y;\x17;v\xf1m\xfcp\xf2\xa7,\x176'
p2241
ssS'_Users_ericdouglas_Documents_VirtualEnvs_djangotest_lib_python2_7_site-packages_django_core_cache_backends___init__'
p2242
(dp2243
g6
(dp2244
g38
S'_Users_ericdouglas_Documents_VirtualEnvs_djangotest_lib_python2_7_site-packages_django_core_cache_backends___init__.html'
p2245
sg40
S'/Users/ericdouglas/Documents/VirtualEnvs/djangotest/lib/python2.7/site-packages/django/core/cache/backends/__init__'
p2246
sg42
g13
(g14
g15
NtRp2247
(dp2248
g18
I1
sg19
I0
sg20
I0
sg21
I0
sg22
I0
sg23
I0
sg24
I0
sbssg25
S'\xca\xf5\x9f\x7f\x88\xdfa\x831|T\x1d\xbc}\xa5v'
p2249
ssS'_Users_ericdouglas_Documents_VirtualEnvs_djangotest_lib_python2_7_site-packages_tastypie_utils_validate_jsonp'
p2250
(dp2251
g88
(dp2252
g8
S'_Users_ericdouglas_Documents_VirtualEnvs_djangotest_lib_python2_7_site-packages_tastypie_utils_validate_jsonp.html'
p2253
sg10
S'/Users/ericdouglas/Documents/VirtualEnvs/djangotest/lib/python2.7/site-packages/tastypie/utils/validate_jsonp'
p2254
sg12
g13
(g14
g15
NtRp2255
(dp2256
g18
I1
sg19
I0
sg20
I55
sg21
I0
sg22
I0
sg23
I39
sg24
I0
sbssg94
S'\x82\xf2\xc6\xa8\x85\xa6\xf4/\xabV(\xd2\x0e`9\x84'
p2257
ssS'_Users_ericdouglas_Documents_VirtualEnvs_djangotest_lib_python2_7_site-packages_django_contrib_messages_utils'
p2258
(dp2259
g88
(dp2260
g8
S'_Users_ericdouglas_Documents_VirtualEnvs_djangotest_lib_python2_7_site-packages_django_contrib_messages_utils.html'
p2261
sg10
S'/Users/ericdouglas/Documents/VirtualEnvs/djangotest/lib/python2.7/site-packages/django/contrib/messages/utils'
p2262
sg12
g13
(g14
g15
NtRp2263
(dp2264
g18
I1
sg19
I0
sg20
I6
sg21
I0
sg22
I0
sg23
I0
sg24
I0
sbssg94
S'\xee\xe6V\xce4\x04\x08y\xc9\xf2\xff\xc9T\xbc?\xa1'
p2265
ssS'_Users_ericdouglas_Documents_VirtualEnvs_djangotest_lib_python2_7_site-packages_django_test_signals'
p2266
(dp2267
g6
(dp2268
g38
S'_Users_ericdouglas_Documents_VirtualEnvs_djangotest_lib_python2_7_site-packages_django_test_signals.html'
p2269
sg40
S'/Users/ericdouglas/Documents/VirtualEnvs/djangotest/lib/python2.7/site-packages/django/test/signals'
p2270
sg42
g13
(g14
g15
NtRp2271
(dp2272
g18
I1
sg19
I0
sg20
I50
sg21
I0
sg22
I0
sg23
I35
sg24
I0
sbssg25
S'ge\x9f\x82 \xec\x0c\x05\x1b\x13\x1ah\x1fYor'
p2273
ssS'_Users_ericdouglas_Documents_VirtualEnvs_djangotest_lib_python2_7_site-packages_django_core_paginator'
p2274
(dp2275
g6
(dp2276
g38
S'_Users_ericdouglas_Documents_VirtualEnvs_djangotest_lib_python2_7_site-packages_django_core_paginator.html'
p2277
sg40
S'/Users/ericdouglas/Documents/VirtualEnvs/djangotest/lib/python2.7/site-packages/django/core/paginator'
p2278
sg42
g13
(g14
g15
NtRp2279
(dp2280
g18
I1
sg19
I0
sg20
I90
sg21
I0
sg22
I0
sg23
I57
sg24
I0
sbssg25
S'\xba\x166\xa1`>\xf5\x99\x83\xc2\xbeN\xf9\xf0\xca;'
p2281
ssS'_Users_ericdouglas_Documents_VirtualEnvs_djangotest_lib_python2_7_site-packages_django_core_cache_backends_db'
p2282
(dp2283
g6
(dp2284
g38
S'_Users_ericdouglas_Documents_VirtualEnvs_djangotest_lib_python2_7_site-packages_django_core_cache_backends_db.html'
p2285
sg40
S'/Users/ericdouglas/Documents/VirtualEnvs/djangotest/lib/python2.7/site-packages/django/core/cache/backends/db'
p2286
sg42
g13
(g14
g15
NtRp2287
(dp2288
g18
I1
sg19
I0
sg20
I136
sg21
I0
sg22
I0
sg23
I110
sg24
I0
sbssg25
S'r\x89\xb9\xd3i\x1b\xa2\xde\xf5\xf4b3v\xa6\xe6Y'
p2289
ssS'_Users_ericdouglas_Documents_VirtualEnvs_djangotest_lib_python2_7_site-packages_django_core_validators'
p2290
(dp2291
g6
(dp2292
g38
S'_Users_ericdouglas_Documents_VirtualEnvs_djangotest_lib_python2_7_site-packages_django_core_validators.html'
p2293
sg40
S'/Users/ericdouglas/Documents/VirtualEnvs/djangotest/lib/python2.7/site-packages/django/core/validators'
p2294
sg42
g13
(g14
g15
NtRp2295
(dp2296
g18
I1
sg19
I0
sg20
I133
sg21
I0
sg22
I0
sg23
I58
sg24
I0
sbssg25
S'\xef?\x8fd5e\xcf\xc8a\x98 N\xc1\xf8i\xaa'
p2297
ssS'_Users_ericdouglas_Documents_VirtualEnvs_djangotest_lib_python2_7_site-packages_django_test_client'
p2298
(dp2299
g6
(dp2300
g675
S'_Users_ericdouglas_Documents_VirtualEnvs_djangotest_lib_python2_7_site-packages_django_test_client.html'
p2301
sg677
S'/Users/ericdouglas/Documents/VirtualEnvs/djangotest/lib/python2.7/site-packages/django/test/client'
p2302
sg679
g13
(g14
g15
NtRp2303
(dp2304
g18
I1
sg19
I0
sg20
I301
sg21
I0
sg22
I0
sg23
I160
sg24
I0
sbssg25
S'\xf4\\\x17\xba1\x1e0\x9c4e\x8c\xfeQQ\x86~'
p2305
ssS'_Users_ericdouglas_Documents_VirtualEnvs_djangotest_lib_python2_7_site-packages_django_conf_urls___init__'
p2306
(dp2307
g88
(dp2308
g8
S'_Users_ericdouglas_Documents_VirtualEnvs_djangotest_lib_python2_7_site-packages_django_conf_urls___init__.html'
p2309
sg10
S'/Users/ericdouglas/Documents/VirtualEnvs/djangotest/lib/python2.7/site-packages/django/conf/urls/__init__'
p2310
sg12
g13
(g14
g15
NtRp2311
(dp2312
g18
I1
sg19
I0
sg20
I42
sg21
I0
sg22
I0
sg23
I4
sg24
I0
sbssg94
S'\xa7\x0ePg\xb0\x829\x16\x0e\xd9\xa5\x00,\xda\x88\n'
p2313
ssS'_Users_ericdouglas_Documents_VirtualEnvs_djangotest_lib_python2_7_site-packages_django_contrib_messages_middleware'
p2314
(dp2315
g88
(dp2316
g8
S'_Users_ericdouglas_Documents_VirtualEnvs_djangotest_lib_python2_7_site-packages_django_contrib_messages_middleware.html'
p2317
sg10
S'/Users/ericdouglas/Documents/VirtualEnvs/djangotest/lib/python2.7/site-packages/django/contrib/messages/middleware'
p2318
sg12
g13
(g14
g15
NtRp2319
(dp2320
g18
I1
sg19
I0
sg20
I11
sg21
I0
sg22
I0
sg23
I1
sg24
I0
sbssg94
S'\xb3^Gb\x9c\x16p\xcf\xc1\x94J\x89,\xf2\x06\xfc'
p2321
ssS'_Users_ericdouglas_Documents_VirtualEnvs_djangotest_lib_python2_7_site-packages_django_db_models_sql_constants'
p2322
(dp2323
g6
(dp2324
g38
S'_Users_ericdouglas_Documents_VirtualEnvs_djangotest_lib_python2_7_site-packages_django_db_models_sql_constants.html'
p2325
sg40
S'/Users/ericdouglas/Documents/VirtualEnvs/djangotest/lib/python2.7/site-packages/django/db/models/sql/constants'
p2326
sg42
g13
(g14
g15
NtRp2327
(dp2328
g18
I1
sg19
I0
sg20
I10
sg21
I0
sg22
I0
sg23
I0
sg24
I0
sbssg25
S'\xb5DP\xdaM\xcf\x15R\x18\xe5~"\xea\xbc\xf2\xb2'
p2329
ssS'_Users_ericdouglas_Documents_VirtualEnvs_djangotest_lib_python2_7_site-packages_django_utils_importlib'
p2330
(dp2331
g6
(dp2332
g38
S'_Users_ericdouglas_Documents_VirtualEnvs_djangotest_lib_python2_7_site-packages_django_utils_importlib.html'
p2333
sg40
S'/Users/ericdouglas/Documents/VirtualEnvs/djangotest/lib/python2.7/site-packages/django/utils/importlib'
p2334
sg42
g13
(g14
g15
NtRp2335
(dp2336
g18
I1
sg19
I0
sg20
I26
sg21
I0
sg22
I0
sg23
I7
sg24
I0
sbssg25
S"g\xa7\xbe' \x98\x16\x85\xd4\xd4[\xbd\xd0\xd6\xd2\xd1"
p2337
ssS'_Users_ericdouglas_Documents_VirtualEnvs_djangotest_lib_python2_7_site-packages_django_db_models_deletion'
p2338
(dp2339
g6
(dp2340
g38
S'_Users_ericdouglas_Documents_VirtualEnvs_djangotest_lib_python2_7_site-packages_django_db_models_deletion.html'
p2341
sg40
S'/Users/ericdouglas/Documents/VirtualEnvs/djangotest/lib/python2.7/site-packages/django/db/models/deletion'
p2342
sg42
g13
(g14
g15
NtRp2343
(dp2344
g18
I1
sg19
I0
sg20
I152
sg21
I0
sg22
I0
sg23
I126
sg24
I0
sbssg25
S'\x88.\xc7{\x87\xfd\x9aOD9\x9b\x90[^\xe1\xd9'
p2345
ssS'_Users_ericdouglas_Documents_VirtualEnvs_djangotest_lib_python2_7_site-packages_django_core_files_utils'
p2346
(dp2347
g6
(dp2348
g38
S'_Users_ericdouglas_Documents_VirtualEnvs_djangotest_lib_python2_7_site-packages_django_core_files_utils.html'
p2349
sg40
S'/Users/ericdouglas/Documents/VirtualEnvs/djangotest/lib/python2.7/site-packages/django/core/files/utils'
p2350
sg42
g13
(g14
g15
NtRp2351
(dp2352
g18
I1
sg19
I0
sg20
I19
sg21
I0
sg22
I0
sg23
I1
sg24
I0
sbssg25
S'\xf9\x11l\xd6u\x8d\xd2\xe3g\x05F\xd6{F\x15\xdc'
p2353
ssS'_Users_ericdouglas_Documents_VirtualEnvs_djangotest_lib_python2_7_site-packages_django_contrib_messages_storage_fallback'
p2354
(dp2355
g88
(dp2356
g8
S'_Users_ericdouglas_Documents_VirtualEnvs_djangotest_lib_python2_7_site-packages_django_contrib_messages_storage_fallback.html'
p2357
sg10
S'/Users/ericdouglas/Documents/VirtualEnvs/djangotest/lib/python2.7/site-packages/django/contrib/messages/storage/fallback'
p2358
sg12
g13
(g14
g15
NtRp2359
(dp2360
g18
I1
sg19
I0
sg20
I29
sg21
I0
sg22
I0
sg23
I18
sg24
I0
sbssg94
S'{\x9a\x07\x19\xc53v2\xc0\xb7P\xdd\xfa\xe7\xdb\xa9'
p2361
ssS'_Users_ericdouglas_Documents_VirtualEnvs_djangotest_lib_python2_7_site-packages_django_template___init__'
p2362
(dp2363
g6
(dp2364
g38
S'_Users_ericdouglas_Documents_VirtualEnvs_djangotest_lib_python2_7_site-packages_django_template___init__.html'
p2365
sg40
S'/Users/ericdouglas/Documents/VirtualEnvs/djangotest/lib/python2.7/site-packages/django/template/__init__'
p2366
sg42
g13
(g14
g15
NtRp2367
(dp2368
g18
I1
sg19
I0
sg20
I6
sg21
I0
sg22
I0
sg23
I0
sg24
I0
sbssg25
S'\xc2\n\xeb\xe1\x06\xdfW\rFf\x0f\xe9\x95\x8e[#'
p2369
ssS'_Users_ericdouglas_Documents_VirtualEnvs_djangotest_lib_python2_7_site-packages_tastypie_validation'
p2370
(dp2371
g88
(dp2372
g8
S'_Users_ericdouglas_Documents_VirtualEnvs_djangotest_lib_python2_7_site-packages_tastypie_validation.html'
p2373
sg10
S'/Users/ericdouglas/Documents/VirtualEnvs/djangotest/lib/python2.7/site-packages/tastypie/validation'
p2374
sg12
g13
(g14
g15
NtRp2375
(dp2376
g18
I1
sg19
I0
sg20
I38
sg21
I0
sg22
I0
sg23
I24
sg24
I0
sbssg94
S'22l|\x18=%aJV\xb1\x92\xff\xec#\xf3'
p2377
ssS'_Users_ericdouglas_Documents_VirtualEnvs_djangotest_lib_python2_7_site-packages_django_http_multipartparser'
p2378
(dp2379
g6
(dp2380
g38
S'_Users_ericdouglas_Documents_VirtualEnvs_djangotest_lib_python2_7_site-packages_django_http_multipartparser.html'
p2381
sg40
S'/Users/ericdouglas/Documents/VirtualEnvs/djangotest/lib/python2.7/site-packages/django/http/multipartparser'
p2382
sg42
g13
(g14
g15
NtRp2383
(dp2384
g18
I1
sg19
I0
sg20
I345
sg21
I0
sg22
I0
sg23
I292
sg24
I0
sbssg25
S'\xc2\xaf\xbb\x19m\xc3*K\xad!\x88)"\xd9\x0e\xfc'
p2385
ssS'_Users_ericdouglas_Documents_VirtualEnvs_djangotest_lib_python2_7_site-packages_django_contrib_auth_forms'
p2386
(dp2387
g6
(dp2388
g38
S'_Users_ericdouglas_Documents_VirtualEnvs_djangotest_lib_python2_7_site-packages_django_contrib_auth_forms.html'
p2389
sg40
S'/Users/ericdouglas/Documents/VirtualEnvs/djangotest/lib/python2.7/site-packages/django/contrib/auth/forms'
p2390
sg42
g13
(g14
g15
NtRp2391
(dp2392
g18
I1
sg19
I0
sg20
I184
sg21
I0
sg22
I0
sg23
I104
sg24
I0
sbssg25
S'_Q\xad?\x18\x1bg\xbfK\xe8tE\xdb\x9dl\xaa'
p2393
ssS'_Users_ericdouglas_Documents_VirtualEnvs_djangotest_lib_python2_7_site-packages_django_db_models_sql_datastructures'
p2394
(dp2395
g6
(dp2396
g38
S'_Users_ericdouglas_Documents_VirtualEnvs_djangotest_lib_python2_7_site-packages_django_db_models_sql_datastructures.html'
p2397
sg40
S'/Users/ericdouglas/Documents/VirtualEnvs/djangotest/lib/python2.7/site-packages/django/db/models/sql/datastructures'
p2398
sg42
g13
(g14
g15
NtRp2399
(dp2400
g18
I1
sg19
I0
sg20
I34
sg21
I0
sg22
I0
sg23
I18
sg24
I0
sbssg25
S'\xa4\xc3\xb0~\n\x90 \x96\x85sR\x14r\xa8\xff\x81'
p2401
ssS'_Users_ericdouglas_Documents_VirtualEnvs_djangotest_lib_python2_7_site-packages_django_core_mail_message'
p2402
(dp2403
g6
(dp2404
g38
S'_Users_ericdouglas_Documents_VirtualEnvs_djangotest_lib_python2_7_site-packages_django_core_mail_message.html'
p2405
sg40
S'/Users/ericdouglas/Documents/VirtualEnvs/djangotest/lib/python2.7/site-packages/django/core/mail/message'
p2406
sg42
g13
(g14
g15
NtRp2407
(dp2408
g18
I1
sg19
I0
sg20
I228
sg21
I0
sg22
I0
sg23
I171
sg24
I0
sbssg25
S'b4\xba\xbb\x94\x9b\xbc\xa0Bs!}N\x87\xc3\xe7'
p2409
ssS'_Users_ericdouglas_Documents_VirtualEnvs_djangotest_lib_python2_7_site-packages_django_db_transaction'
p2410
(dp2411
g6
(dp2412
g8
S'_Users_ericdouglas_Documents_VirtualEnvs_djangotest_lib_python2_7_site-packages_django_db_transaction.html'
p2413
sg10
S'/Users/ericdouglas/Documents/VirtualEnvs/djangotest/lib/python2.7/site-packages/django/db/transaction'
p2414
sg12
g13
(g14
g15
NtRp2415
(dp2416
g18
I1
sg19
I0
sg20
I206
sg21
I0
sg22
I0
sg23
I102
sg24
I0
sbssg25
S"\xcfe\xc9\x8a\xa1\xd2\x05\xa8'b\x06\x8b\x10[\xe6&"
p2417
ssS'_Users_ericdouglas_Documents_VirtualEnvs_djangotest_lib_python2_7_site-packages_django_core_files_base'
p2418
(dp2419
g6
(dp2420
g38
S'_Users_ericdouglas_Documents_VirtualEnvs_djangotest_lib_python2_7_site-packages_django_core_files_base.html'
p2421
sg40
S'/Users/ericdouglas/Documents/VirtualEnvs/djangotest/lib/python2.7/site-packages/django/core/files/base'
p2422
sg42
g13
(g14
g15
NtRp2423
(dp2424
g18
I1
sg19
I0
sg20
I106
sg21
I0
sg22
I0
sg23
I63
sg24
I0
sbssg25
S'V\x8dZ\xca\x82fK\xd0\xcb9W\xe3\xb8r\xfd\x17'
p2425
ssS'_Users_ericdouglas_Documents_VirtualEnvs_djangotest_lib_python2_7_site-packages_django_contrib_sessions_middleware'
p2426
(dp2427
g88
(dp2428
g8
S'_Users_ericdouglas_Documents_VirtualEnvs_djangotest_lib_python2_7_site-packages_django_contrib_sessions_middleware.html'
p2429
sg10
S'/Users/ericdouglas/Documents/VirtualEnvs/djangotest/lib/python2.7/site-packages/django/contrib/sessions/middleware'
p2430
sg12
g13
(g14
g15
NtRp2431
(dp2432
g18
I1
sg19
I0
sg20
I29
sg21
I0
sg22
I0
sg23
I11
sg24
I0
sbssg94
S'\xf5|\xbb6\x01\x99s`\x94\xb9Q\x96?\xafn\xca'
p2433
sssS'version'
p2434
S'3.7.1'
p2435
sS'settings'
p2436
S'\x98\xa8x\xfe"r\xb5K\x98\xb1N\\\x99\x9e\xf3\xe5'
p2437
sS'format'
p2438
I1
s.